
../bomb:     file format elf64-x86-64


Disassembly of section .init:

0000000000400ae8 <_init>:
  400ae8:	48 83 ec 08          	sub    $0x8,%rsp
  400aec:	48 8b 05 05 35 20 00 	mov    0x203505(%rip),%rax        # 603ff8 <__gmon_start__>
  400af3:	48 85 c0             	test   %rax,%rax
  400af6:	74 05                	je     400afd <_init+0x15>
  400af8:	e8 d3 01 00 00       	callq  400cd0 <.plt.got>
  400afd:	48 83 c4 08          	add    $0x8,%rsp
  400b01:	c3                   	retq   

Disassembly of section .plt:

0000000000400b10 <.plt>:
  400b10:	ff 35 f2 34 20 00    	pushq  0x2034f2(%rip)        # 604008 <_GLOBAL_OFFSET_TABLE_+0x8>
  400b16:	ff 25 f4 34 20 00    	jmpq   *0x2034f4(%rip)        # 604010 <_GLOBAL_OFFSET_TABLE_+0x10>
  400b1c:	0f 1f 40 00          	nopl   0x0(%rax)

0000000000400b20 <getenv@plt>:
  400b20:	ff 25 f2 34 20 00    	jmpq   *0x2034f2(%rip)        # 604018 <getenv@GLIBC_2.2.5>
  400b26:	68 00 00 00 00       	pushq  $0x0
  400b2b:	e9 e0 ff ff ff       	jmpq   400b10 <.plt>

0000000000400b30 <strcasecmp@plt>:
  400b30:	ff 25 ea 34 20 00    	jmpq   *0x2034ea(%rip)        # 604020 <strcasecmp@GLIBC_2.2.5>
  400b36:	68 01 00 00 00       	pushq  $0x1
  400b3b:	e9 d0 ff ff ff       	jmpq   400b10 <.plt>

0000000000400b40 <__errno_location@plt>:
  400b40:	ff 25 e2 34 20 00    	jmpq   *0x2034e2(%rip)        # 604028 <__errno_location@GLIBC_2.2.5>
  400b46:	68 02 00 00 00       	pushq  $0x2
  400b4b:	e9 c0 ff ff ff       	jmpq   400b10 <.plt>

0000000000400b50 <strcpy@plt>:
  400b50:	ff 25 da 34 20 00    	jmpq   *0x2034da(%rip)        # 604030 <strcpy@GLIBC_2.2.5>
  400b56:	68 03 00 00 00       	pushq  $0x3
  400b5b:	e9 b0 ff ff ff       	jmpq   400b10 <.plt>

0000000000400b60 <puts@plt>:
  400b60:	ff 25 d2 34 20 00    	jmpq   *0x2034d2(%rip)        # 604038 <puts@GLIBC_2.2.5>
  400b66:	68 04 00 00 00       	pushq  $0x4
  400b6b:	e9 a0 ff ff ff       	jmpq   400b10 <.plt>

0000000000400b70 <write@plt>:
  400b70:	ff 25 ca 34 20 00    	jmpq   *0x2034ca(%rip)        # 604040 <write@GLIBC_2.2.5>
  400b76:	68 05 00 00 00       	pushq  $0x5
  400b7b:	e9 90 ff ff ff       	jmpq   400b10 <.plt>

0000000000400b80 <printf@plt>:
  400b80:	ff 25 c2 34 20 00    	jmpq   *0x2034c2(%rip)        # 604048 <printf@GLIBC_2.2.5>
  400b86:	68 06 00 00 00       	pushq  $0x6
  400b8b:	e9 80 ff ff ff       	jmpq   400b10 <.plt>

0000000000400b90 <alarm@plt>:
  400b90:	ff 25 ba 34 20 00    	jmpq   *0x2034ba(%rip)        # 604050 <alarm@GLIBC_2.2.5>
  400b96:	68 07 00 00 00       	pushq  $0x7
  400b9b:	e9 70 ff ff ff       	jmpq   400b10 <.plt>

0000000000400ba0 <close@plt>:
  400ba0:	ff 25 b2 34 20 00    	jmpq   *0x2034b2(%rip)        # 604058 <close@GLIBC_2.2.5>
  400ba6:	68 08 00 00 00       	pushq  $0x8
  400bab:	e9 60 ff ff ff       	jmpq   400b10 <.plt>

0000000000400bb0 <read@plt>:
  400bb0:	ff 25 aa 34 20 00    	jmpq   *0x2034aa(%rip)        # 604060 <read@GLIBC_2.2.5>
  400bb6:	68 09 00 00 00       	pushq  $0x9
  400bbb:	e9 50 ff ff ff       	jmpq   400b10 <.plt>

0000000000400bc0 <__libc_start_main@plt>:
  400bc0:	ff 25 a2 34 20 00    	jmpq   *0x2034a2(%rip)        # 604068 <__libc_start_main@GLIBC_2.2.5>
  400bc6:	68 0a 00 00 00       	pushq  $0xa
  400bcb:	e9 40 ff ff ff       	jmpq   400b10 <.plt>

0000000000400bd0 <fgets@plt>:
  400bd0:	ff 25 9a 34 20 00    	jmpq   *0x20349a(%rip)        # 604070 <fgets@GLIBC_2.2.5>
  400bd6:	68 0b 00 00 00       	pushq  $0xb
  400bdb:	e9 30 ff ff ff       	jmpq   400b10 <.plt>

0000000000400be0 <signal@plt>:
  400be0:	ff 25 92 34 20 00    	jmpq   *0x203492(%rip)        # 604078 <signal@GLIBC_2.2.5>
  400be6:	68 0c 00 00 00       	pushq  $0xc
  400beb:	e9 20 ff ff ff       	jmpq   400b10 <.plt>

0000000000400bf0 <gethostbyname@plt>:
  400bf0:	ff 25 8a 34 20 00    	jmpq   *0x20348a(%rip)        # 604080 <gethostbyname@GLIBC_2.2.5>
  400bf6:	68 0d 00 00 00       	pushq  $0xd
  400bfb:	e9 10 ff ff ff       	jmpq   400b10 <.plt>

0000000000400c00 <fprintf@plt>:
  400c00:	ff 25 82 34 20 00    	jmpq   *0x203482(%rip)        # 604088 <fprintf@GLIBC_2.2.5>
  400c06:	68 0e 00 00 00       	pushq  $0xe
  400c0b:	e9 00 ff ff ff       	jmpq   400b10 <.plt>

0000000000400c10 <strtol@plt>:
  400c10:	ff 25 7a 34 20 00    	jmpq   *0x20347a(%rip)        # 604090 <strtol@GLIBC_2.2.5>
  400c16:	68 0f 00 00 00       	pushq  $0xf
  400c1b:	e9 f0 fe ff ff       	jmpq   400b10 <.plt>

0000000000400c20 <fflush@plt>:
  400c20:	ff 25 72 34 20 00    	jmpq   *0x203472(%rip)        # 604098 <fflush@GLIBC_2.2.5>
  400c26:	68 10 00 00 00       	pushq  $0x10
  400c2b:	e9 e0 fe ff ff       	jmpq   400b10 <.plt>

0000000000400c30 <__isoc99_sscanf@plt>:
  400c30:	ff 25 6a 34 20 00    	jmpq   *0x20346a(%rip)        # 6040a0 <__isoc99_sscanf@GLIBC_2.7>
  400c36:	68 11 00 00 00       	pushq  $0x11
  400c3b:	e9 d0 fe ff ff       	jmpq   400b10 <.plt>

0000000000400c40 <memmove@plt>:
  400c40:	ff 25 62 34 20 00    	jmpq   *0x203462(%rip)        # 6040a8 <memmove@GLIBC_2.2.5>
  400c46:	68 12 00 00 00       	pushq  $0x12
  400c4b:	e9 c0 fe ff ff       	jmpq   400b10 <.plt>

0000000000400c50 <fopen@plt>:
  400c50:	ff 25 5a 34 20 00    	jmpq   *0x20345a(%rip)        # 6040b0 <fopen@GLIBC_2.2.5>
  400c56:	68 13 00 00 00       	pushq  $0x13
  400c5b:	e9 b0 fe ff ff       	jmpq   400b10 <.plt>

0000000000400c60 <gethostname@plt>:
  400c60:	ff 25 52 34 20 00    	jmpq   *0x203452(%rip)        # 6040b8 <gethostname@GLIBC_2.2.5>
  400c66:	68 14 00 00 00       	pushq  $0x14
  400c6b:	e9 a0 fe ff ff       	jmpq   400b10 <.plt>

0000000000400c70 <sprintf@plt>:
  400c70:	ff 25 4a 34 20 00    	jmpq   *0x20344a(%rip)        # 6040c0 <sprintf@GLIBC_2.2.5>
  400c76:	68 15 00 00 00       	pushq  $0x15
  400c7b:	e9 90 fe ff ff       	jmpq   400b10 <.plt>

0000000000400c80 <exit@plt>:
  400c80:	ff 25 42 34 20 00    	jmpq   *0x203442(%rip)        # 6040c8 <exit@GLIBC_2.2.5>
  400c86:	68 16 00 00 00       	pushq  $0x16
  400c8b:	e9 80 fe ff ff       	jmpq   400b10 <.plt>

0000000000400c90 <connect@plt>:
  400c90:	ff 25 3a 34 20 00    	jmpq   *0x20343a(%rip)        # 6040d0 <connect@GLIBC_2.2.5>
  400c96:	68 17 00 00 00       	pushq  $0x17
  400c9b:	e9 70 fe ff ff       	jmpq   400b10 <.plt>

0000000000400ca0 <sleep@plt>:
  400ca0:	ff 25 32 34 20 00    	jmpq   *0x203432(%rip)        # 6040d8 <sleep@GLIBC_2.2.5>
  400ca6:	68 18 00 00 00       	pushq  $0x18
  400cab:	e9 60 fe ff ff       	jmpq   400b10 <.plt>

0000000000400cb0 <__ctype_b_loc@plt>:
  400cb0:	ff 25 2a 34 20 00    	jmpq   *0x20342a(%rip)        # 6040e0 <__ctype_b_loc@GLIBC_2.3>
  400cb6:	68 19 00 00 00       	pushq  $0x19
  400cbb:	e9 50 fe ff ff       	jmpq   400b10 <.plt>

0000000000400cc0 <socket@plt>:
  400cc0:	ff 25 22 34 20 00    	jmpq   *0x203422(%rip)        # 6040e8 <socket@GLIBC_2.2.5>
  400cc6:	68 1a 00 00 00       	pushq  $0x1a
  400ccb:	e9 40 fe ff ff       	jmpq   400b10 <.plt>

Disassembly of section .plt.got:

0000000000400cd0 <.plt.got>:
  400cd0:	ff 25 22 33 20 00    	jmpq   *0x203322(%rip)        # 603ff8 <__gmon_start__>
  400cd6:	66 90                	xchg   %ax,%ax

Disassembly of section .text:

0000000000400ce0 <_start>:
  400ce0:	31 ed                	xor    %ebp,%ebp
  400ce2:	49 89 d1             	mov    %rdx,%r9
  400ce5:	5e                   	pop    %rsi
  400ce6:	48 89 e2             	mov    %rsp,%rdx
  400ce9:	48 83 e4 f0          	and    $0xfffffffffffffff0,%rsp
  400ced:	50                   	push   %rax
  400cee:	54                   	push   %rsp
  400cef:	49 c7 c0 f0 28 40 00 	mov    $0x4028f0,%r8
  400cf6:	48 c7 c1 80 28 40 00 	mov    $0x402880,%rcx
  400cfd:	48 c7 c7 b2 0d 40 00 	mov    $0x400db2,%rdi
  400d04:	e8 b7 fe ff ff       	callq  400bc0 <__libc_start_main@plt>
  400d09:	f4                   	hlt    
  400d0a:	66 0f 1f 44 00 00    	nopw   0x0(%rax,%rax,1)

0000000000400d10 <deregister_tm_clones>:
  400d10:	b8 80 47 60 00       	mov    $0x604780,%eax
  400d15:	48 3d 80 47 60 00    	cmp    $0x604780,%rax
  400d1b:	74 13                	je     400d30 <deregister_tm_clones+0x20>
  400d1d:	b8 00 00 00 00       	mov    $0x0,%eax
  400d22:	48 85 c0             	test   %rax,%rax
  400d25:	74 09                	je     400d30 <deregister_tm_clones+0x20>
  400d27:	bf 80 47 60 00       	mov    $0x604780,%edi
  400d2c:	ff e0                	jmpq   *%rax
  400d2e:	66 90                	xchg   %ax,%ax
  400d30:	c3                   	retq   
  400d31:	0f 1f 44 00 00       	nopl   0x0(%rax,%rax,1)
  400d36:	66 2e 0f 1f 84 00 00 	nopw   %cs:0x0(%rax,%rax,1)
  400d3d:	00 00 00 

0000000000400d40 <register_tm_clones>:
  400d40:	be 80 47 60 00       	mov    $0x604780,%esi
  400d45:	48 81 ee 80 47 60 00 	sub    $0x604780,%rsi
  400d4c:	48 c1 fe 03          	sar    $0x3,%rsi
  400d50:	48 89 f0             	mov    %rsi,%rax
  400d53:	48 c1 e8 3f          	shr    $0x3f,%rax
  400d57:	48 01 c6             	add    %rax,%rsi
  400d5a:	48 d1 fe             	sar    %rsi
  400d5d:	74 11                	je     400d70 <register_tm_clones+0x30>
  400d5f:	b8 00 00 00 00       	mov    $0x0,%eax
  400d64:	48 85 c0             	test   %rax,%rax
  400d67:	74 07                	je     400d70 <register_tm_clones+0x30>
  400d69:	bf 80 47 60 00       	mov    $0x604780,%edi
  400d6e:	ff e0                	jmpq   *%rax
  400d70:	c3                   	retq   
  400d71:	0f 1f 44 00 00       	nopl   0x0(%rax,%rax,1)
  400d76:	66 2e 0f 1f 84 00 00 	nopw   %cs:0x0(%rax,%rax,1)
  400d7d:	00 00 00 

0000000000400d80 <__do_global_dtors_aux>:
  400d80:	80 3d 11 3a 20 00 00 	cmpb   $0x0,0x203a11(%rip)        # 604798 <completed.7243>
  400d87:	75 17                	jne    400da0 <__do_global_dtors_aux+0x20>
  400d89:	55                   	push   %rbp
  400d8a:	48 89 e5             	mov    %rsp,%rbp
  400d8d:	e8 7e ff ff ff       	callq  400d10 <deregister_tm_clones>
  400d92:	c6 05 ff 39 20 00 01 	movb   $0x1,0x2039ff(%rip)        # 604798 <completed.7243>
  400d99:	5d                   	pop    %rbp
  400d9a:	c3                   	retq   
  400d9b:	0f 1f 44 00 00       	nopl   0x0(%rax,%rax,1)
  400da0:	c3                   	retq   
  400da1:	0f 1f 44 00 00       	nopl   0x0(%rax,%rax,1)
  400da6:	66 2e 0f 1f 84 00 00 	nopw   %cs:0x0(%rax,%rax,1)
  400dad:	00 00 00 

0000000000400db0 <frame_dummy>:
  400db0:	eb 8e                	jmp    400d40 <register_tm_clones>

0000000000400db2 <main>:
  400db2:	55                   	push   %rbp
  400db3:	53                   	push   %rbx
  400db4:	48 83 ec 08          	sub    $0x8,%rsp
  400db8:	89 fb                	mov    %edi,%ebx
  400dba:	83 ff 01             	cmp    $0x1,%edi
  400dbd:	0f 84 e5 00 00 00    	je     400ea8 <main+0xf6>
  400dc3:	48 89 f5             	mov    %rsi,%rbp
  400dc6:	83 ff 02             	cmp    $0x2,%edi
  400dc9:	0f 85 08 01 00 00    	jne    400ed7 <main+0x125>
  400dcf:	48 8b 7e 08          	mov    0x8(%rsi),%rdi
  400dd3:	be 04 29 40 00       	mov    $0x402904,%esi
  400dd8:	e8 73 fe ff ff       	callq  400c50 <fopen@plt>
  400ddd:	48 89 05 c4 39 20 00 	mov    %rax,0x2039c4(%rip)        # 6047a8 <infile>
  400de4:	48 85 c0             	test   %rax,%rax
  400de7:	0f 84 ce 00 00 00    	je     400ebb <main+0x109>
  400ded:	e8 b4 05 00 00       	callq  4013a6 <initialize_bomb>
  400df2:	89 df                	mov    %ebx,%edi
  400df4:	b8 00 00 00 00       	mov    $0x0,%eax
  400df9:	e8 5d 06 00 00       	callq  40145b <welcome_message>
  400dfe:	e8 36 0e 00 00       	callq  401c39 <read_line>
  400e03:	48 89 c7             	mov    %rax,%rdi
  400e06:	e8 e8 00 00 00       	callq  400ef3 <phase_1>
  400e0b:	e8 04 08 00 00       	callq  401614 <phase_defused>
  400e10:	bf 40 29 40 00       	mov    $0x402940,%edi
  400e15:	e8 46 fd ff ff       	callq  400b60 <puts@plt>
  400e1a:	e8 1a 0e 00 00       	callq  401c39 <read_line>
  400e1f:	48 89 c7             	mov    %rax,%rdi
  400e22:	e8 eb 00 00 00       	callq  400f12 <phase_2>
  400e27:	e8 e8 07 00 00       	callq  401614 <phase_defused>
  400e2c:	bf 80 29 40 00       	mov    $0x402980,%edi
  400e31:	e8 2a fd ff ff       	callq  400b60 <puts@plt>
  400e36:	e8 fe 0d 00 00       	callq  401c39 <read_line>
  400e3b:	48 89 c7             	mov    %rax,%rdi
  400e3e:	e8 74 01 00 00       	callq  400fb7 <phase_3>
  400e43:	e8 cc 07 00 00       	callq  401614 <phase_defused>
  400e48:	bf a8 29 40 00       	mov    $0x4029a8,%edi
  400e4d:	e8 0e fd ff ff       	callq  400b60 <puts@plt>
  400e52:	e8 e2 0d 00 00       	callq  401c39 <read_line>
  400e57:	48 89 c7             	mov    %rax,%rdi
  400e5a:	e8 f7 01 00 00       	callq  401056 <phase_4>
  400e5f:	e8 b0 07 00 00       	callq  401614 <phase_defused>
  400e64:	bf d0 29 40 00       	mov    $0x4029d0,%edi
  400e69:	e8 f2 fc ff ff       	callq  400b60 <puts@plt>
  400e6e:	e8 c6 0d 00 00       	callq  401c39 <read_line>
  400e73:	48 89 c7             	mov    %rax,%rdi
  400e76:	e8 2e 02 00 00       	callq  4010a9 <phase_5>
  400e7b:	e8 94 07 00 00       	callq  401614 <phase_defused>
  400e80:	bf 08 2a 40 00       	mov    $0x402a08,%edi
  400e85:	e8 d6 fc ff ff       	callq  400b60 <puts@plt>
  400e8a:	e8 aa 0d 00 00       	callq  401c39 <read_line>
  400e8f:	48 89 c7             	mov    %rax,%rdi
  400e92:	e8 71 02 00 00       	callq  401108 <phase_6>
  400e97:	e8 78 07 00 00       	callq  401614 <phase_defused>
  400e9c:	b8 00 00 00 00       	mov    $0x0,%eax
  400ea1:	48 83 c4 08          	add    $0x8,%rsp
  400ea5:	5b                   	pop    %rbx
  400ea6:	5d                   	pop    %rbp
  400ea7:	c3                   	retq   
  400ea8:	48 8b 05 d9 38 20 00 	mov    0x2038d9(%rip),%rax        # 604788 <stdin@@GLIBC_2.2.5>
  400eaf:	48 89 05 f2 38 20 00 	mov    %rax,0x2038f2(%rip)        # 6047a8 <infile>
  400eb6:	e9 32 ff ff ff       	jmpq   400ded <main+0x3b>
  400ebb:	48 8b 55 08          	mov    0x8(%rbp),%rdx
  400ebf:	48 8b 75 00          	mov    0x0(%rbp),%rsi
  400ec3:	bf 06 29 40 00       	mov    $0x402906,%edi
  400ec8:	e8 b3 fc ff ff       	callq  400b80 <printf@plt>
  400ecd:	bf 08 00 00 00       	mov    $0x8,%edi
  400ed2:	e8 a9 fd ff ff       	callq  400c80 <exit@plt>
  400ed7:	48 8b 36             	mov    (%rsi),%rsi
  400eda:	bf 23 29 40 00       	mov    $0x402923,%edi
  400edf:	b8 00 00 00 00       	mov    $0x0,%eax
  400ee4:	e8 97 fc ff ff       	callq  400b80 <printf@plt>
  400ee9:	bf 08 00 00 00       	mov    $0x8,%edi
  400eee:	e8 8d fd ff ff       	callq  400c80 <exit@plt>

0000000000400ef3 <phase_1>:
  400ef3:	53                   	push   %rbx
  400ef4:	48 89 fb             	mov    %rdi,%rbx
  400ef7:	80 7f 01 00          	cmpb   $0x0,0x1(%rdi)
  400efb:	75 07                	jne    400f04 <phase_1+0x11>
  400efd:	80 3b 69             	cmpb   $0x69,(%rbx)
  400f00:	75 09                	jne    400f0b <phase_1+0x18>
  400f02:	5b                   	pop    %rbx
  400f03:	c3                   	retq   
  400f04:	e8 46 07 00 00       	callq  40164f <explode_bomb>
  400f09:	eb f2                	jmp    400efd <phase_1+0xa>
  400f0b:	e8 3f 07 00 00       	callq  40164f <explode_bomb>
  400f10:	eb f0                	jmp    400f02 <phase_1+0xf>

0000000000400f12 <phase_2>:
  400f12:	41 54                	push   %r12
  400f14:	55                   	push   %rbp
  400f15:	53                   	push   %rbx
  400f16:	48 83 ec 20          	sub    $0x20,%rsp
  400f1a:	48 89 e6             	mov    %rsp,%rsi
  400f1d:	e8 d8 0c 00 00       	callq  401bfa <read_six_numbers>
  400f22:	83 3c 24 04          	cmpl   $0x4,(%rsp)
  400f26:	7e 0a                	jle    400f32 <phase_2+0x20>
  400f28:	48 89 e3             	mov    %rsp,%rbx
  400f2b:	bd 01 00 00 00       	mov    $0x1,%ebp
  400f30:	eb 23                	jmp    400f55 <phase_2+0x43>
  400f32:	e8 18 07 00 00       	callq  40164f <explode_bomb>
  400f37:	eb ef                	jmp    400f28 <phase_2+0x16>
  400f39:	e8 11 07 00 00       	callq  40164f <explode_bomb>
  400f3e:	41 8b 44 24 04       	mov    0x4(%r12),%eax
  400f43:	89 05 53 38 20 00    	mov    %eax,0x203853(%rip)        # 60479c <trap>
  400f49:	83 c5 01             	add    $0x1,%ebp
  400f4c:	48 83 c3 04          	add    $0x4,%rbx
  400f50:	83 fd 06             	cmp    $0x6,%ebp
  400f53:	74 0e                	je     400f63 <phase_2+0x51>
  400f55:	49 89 dc             	mov    %rbx,%r12
  400f58:	8b 03                	mov    (%rbx),%eax
  400f5a:	29 e8                	sub    %ebp,%eax
  400f5c:	39 43 04             	cmp    %eax,0x4(%rbx)
  400f5f:	74 dd                	je     400f3e <phase_2+0x2c>
  400f61:	eb d6                	jmp    400f39 <phase_2+0x27>
  400f63:	48 83 c4 20          	add    $0x20,%rsp
  400f67:	5b                   	pop    %rbx
  400f68:	5d                   	pop    %rbp
  400f69:	41 5c                	pop    %r12
  400f6b:	c3                   	retq   

0000000000400f6c <func_switch>:
  400f6c:	83 ff 07             	cmp    $0x7,%edi
  400f6f:	77 2d                	ja     400f9e <func_switch+0x32>
  400f71:	89 ff                	mov    %edi,%edi
  400f73:	ff 24 fd 40 2a 40 00 	jmpq   *0x402a40(,%rdi,8)
  400f7a:	b8 27 01 00 00       	mov    $0x127,%eax
  400f7f:	c3                   	retq   
  400f80:	b8 9d 02 00 00       	mov    $0x29d,%eax
  400f85:	c3                   	retq   
  400f86:	b8 64 01 00 00       	mov    $0x164,%eax
  400f8b:	c3                   	retq   
  400f8c:	b8 55 01 00 00       	mov    $0x155,%eax
  400f91:	c3                   	retq   
  400f92:	b8 08 01 00 00       	mov    $0x108,%eax
  400f97:	c3                   	retq   
  400f98:	b8 91 01 00 00       	mov    $0x191,%eax
  400f9d:	c3                   	retq   
  400f9e:	48 83 ec 08          	sub    $0x8,%rsp
  400fa2:	e8 a8 06 00 00       	callq  40164f <explode_bomb>
  400fa7:	b8 00 00 00 00       	mov    $0x0,%eax
  400fac:	48 83 c4 08          	add    $0x8,%rsp
  400fb0:	c3                   	retq   
  400fb1:	b8 a6 00 00 00       	mov    $0xa6,%eax
  400fb6:	c3                   	retq   

0000000000400fb7 <phase_3>:
  400fb7:	53                   	push   %rbx
  400fb8:	48 83 ec 10          	sub    $0x10,%rsp
  400fbc:	c7 44 24 0c 00 00 00 	movl   $0x0,0xc(%rsp)
  400fc3:	00 
  400fc4:	c7 44 24 08 00 00 00 	movl   $0x0,0x8(%rsp)
  400fcb:	00 
  400fcc:	48 8d 4c 24 08       	lea    0x8(%rsp),%rcx
  400fd1:	48 8d 54 24 0c       	lea    0xc(%rsp),%rdx
  400fd6:	be 69 31 40 00       	mov    $0x403169,%esi
  400fdb:	b8 00 00 00 00       	mov    $0x0,%eax
  400fe0:	e8 4b fc ff ff       	callq  400c30 <__isoc99_sscanf@plt>
  400fe5:	83 f8 01             	cmp    $0x1,%eax
  400fe8:	7e 0a                	jle    400ff4 <phase_3+0x3d>
  400fea:	8b 44 24 08          	mov    0x8(%rsp),%eax
  400fee:	39 44 24 0c          	cmp    %eax,0xc(%rsp)
  400ff2:	75 05                	jne    400ff9 <phase_3+0x42>
  400ff4:	e8 56 06 00 00       	callq  40164f <explode_bomb>
  400ff9:	8b 7c 24 0c          	mov    0xc(%rsp),%edi
  400ffd:	e8 6a ff ff ff       	callq  400f6c <func_switch>
  401002:	89 c3                	mov    %eax,%ebx
  401004:	8b 7c 24 08          	mov    0x8(%rsp),%edi
  401008:	e8 5f ff ff ff       	callq  400f6c <func_switch>
  40100d:	39 c3                	cmp    %eax,%ebx
  40100f:	75 06                	jne    401017 <phase_3+0x60>
  401011:	48 83 c4 10          	add    $0x10,%rsp
  401015:	5b                   	pop    %rbx
  401016:	c3                   	retq   
  401017:	e8 33 06 00 00       	callq  40164f <explode_bomb>
  40101c:	eb f3                	jmp    401011 <phase_3+0x5a>

000000000040101e <func4>:
  40101e:	b8 00 00 00 00       	mov    $0x0,%eax
  401023:	85 ff                	test   %edi,%edi
  401025:	7e 2e                	jle    401055 <func4+0x37>
  401027:	89 f0                	mov    %esi,%eax
  401029:	83 ff 01             	cmp    $0x1,%edi
  40102c:	74 27                	je     401055 <func4+0x37>
  40102e:	41 54                	push   %r12
  401030:	55                   	push   %rbp
  401031:	53                   	push   %rbx
  401032:	41 89 f4             	mov    %esi,%r12d
  401035:	89 fb                	mov    %edi,%ebx
  401037:	8d 7f ff             	lea    -0x1(%rdi),%edi
  40103a:	e8 df ff ff ff       	callq  40101e <func4>
  40103f:	42 8d 2c 20          	lea    (%rax,%r12,1),%ebp
  401043:	8d 7b fe             	lea    -0x2(%rbx),%edi
  401046:	44 89 e6             	mov    %r12d,%esi
  401049:	e8 d0 ff ff ff       	callq  40101e <func4>
  40104e:	01 e8                	add    %ebp,%eax
  401050:	5b                   	pop    %rbx
  401051:	5d                   	pop    %rbp
  401052:	41 5c                	pop    %r12
  401054:	c3                   	retq   
  401055:	c3                   	retq   

0000000000401056 <phase_4>:
  401056:	48 83 ec 18          	sub    $0x18,%rsp
  40105a:	48 8d 4c 24 0c       	lea    0xc(%rsp),%rcx
  40105f:	48 8d 54 24 08       	lea    0x8(%rsp),%rdx
  401064:	be 69 31 40 00       	mov    $0x403169,%esi
  401069:	b8 00 00 00 00       	mov    $0x0,%eax
  40106e:	e8 bd fb ff ff       	callq  400c30 <__isoc99_sscanf@plt>
  401073:	83 f8 02             	cmp    $0x2,%eax
  401076:	75 0c                	jne    401084 <phase_4+0x2e>
  401078:	8b 44 24 0c          	mov    0xc(%rsp),%eax
  40107c:	83 e8 02             	sub    $0x2,%eax
  40107f:	83 f8 02             	cmp    $0x2,%eax
  401082:	76 05                	jbe    401089 <phase_4+0x33>
  401084:	e8 c6 05 00 00       	callq  40164f <explode_bomb>
  401089:	8b 74 24 0c          	mov    0xc(%rsp),%esi
  40108d:	bf 07 00 00 00       	mov    $0x7,%edi
  401092:	e8 87 ff ff ff       	callq  40101e <func4>
  401097:	39 44 24 08          	cmp    %eax,0x8(%rsp)
  40109b:	75 05                	jne    4010a2 <phase_4+0x4c>
  40109d:	48 83 c4 18          	add    $0x18,%rsp
  4010a1:	c3                   	retq   
  4010a2:	e8 a8 05 00 00       	callq  40164f <explode_bomb>
  4010a7:	eb f4                	jmp    40109d <phase_4+0x47>

00000000004010a9 <phase_5>:
  4010a9:	53                   	push   %rbx
  4010aa:	48 83 ec 10          	sub    $0x10,%rsp
  4010ae:	48 89 fb             	mov    %rdi,%rbx
  4010b1:	e8 6f 02 00 00       	callq  401325 <string_length>
  4010b6:	83 f8 06             	cmp    $0x6,%eax
  4010b9:	75 3f                	jne    4010fa <phase_5+0x51>
  4010bb:	b8 00 00 00 00       	mov    $0x0,%eax
  4010c0:	0f b6 14 03          	movzbl (%rbx,%rax,1),%edx
  4010c4:	83 e2 0f             	and    $0xf,%edx
  4010c7:	0f b6 92 80 2a 40 00 	movzbl 0x402a80(%rdx),%edx
  4010ce:	88 54 04 09          	mov    %dl,0x9(%rsp,%rax,1)
  4010d2:	48 83 c0 01          	add    $0x1,%rax
  4010d6:	48 83 f8 06          	cmp    $0x6,%rax
  4010da:	75 e4                	jne    4010c0 <phase_5+0x17>
  4010dc:	c6 44 24 0f 00       	movb   $0x0,0xf(%rsp)
  4010e1:	be 90 2a 40 00       	mov    $0x402a90,%esi
  4010e6:	48 8d 7c 24 09       	lea    0x9(%rsp),%rdi
  4010eb:	e8 4e 02 00 00       	callq  40133e <strings_not_equal>
  4010f0:	85 c0                	test   %eax,%eax
  4010f2:	75 0d                	jne    401101 <phase_5+0x58>
  4010f4:	48 83 c4 10          	add    $0x10,%rsp
  4010f8:	5b                   	pop    %rbx
  4010f9:	c3                   	retq   
  4010fa:	e8 50 05 00 00       	callq  40164f <explode_bomb>
  4010ff:	eb ba                	jmp    4010bb <phase_5+0x12>
  401101:	e8 49 05 00 00       	callq  40164f <explode_bomb>
  401106:	eb ec                	jmp    4010f4 <phase_5+0x4b>

0000000000401108 <phase_6>:
  401108:	41 56                	push   %r14
  40110a:	41 55                	push   %r13
  40110c:	41 54                	push   %r12
  40110e:	55                   	push   %rbp
  40110f:	53                   	push   %rbx
  401110:	48 83 ec 50          	sub    $0x50,%rsp
  401114:	48 8d 74 24 30       	lea    0x30(%rsp),%rsi
  401119:	e8 dc 0a 00 00       	callq  401bfa <read_six_numbers>
  40111e:	4c 8d 64 24 30       	lea    0x30(%rsp),%r12
  401123:	4d 8d 74 24 14       	lea    0x14(%r12),%r14
  401128:	41 bd 01 00 00 00    	mov    $0x1,%r13d
  40112e:	eb 28                	jmp    401158 <phase_6+0x50>
  401130:	e8 1a 05 00 00       	callq  40164f <explode_bomb>
  401135:	eb 30                	jmp    401167 <phase_6+0x5f>
  401137:	e8 13 05 00 00       	callq  40164f <explode_bomb>
  40113c:	48 83 c3 01          	add    $0x1,%rbx
  401140:	83 fb 05             	cmp    $0x5,%ebx
  401143:	7f 0b                	jg     401150 <phase_6+0x48>
  401145:	8b 44 9c 30          	mov    0x30(%rsp,%rbx,4),%eax
  401149:	39 45 00             	cmp    %eax,0x0(%rbp)
  40114c:	75 ee                	jne    40113c <phase_6+0x34>
  40114e:	eb e7                	jmp    401137 <phase_6+0x2f>
  401150:	49 83 c5 01          	add    $0x1,%r13
  401154:	49 83 c4 04          	add    $0x4,%r12
  401158:	4c 89 e5             	mov    %r12,%rbp
  40115b:	41 8b 04 24          	mov    (%r12),%eax
  40115f:	83 e8 01             	sub    $0x1,%eax
  401162:	83 f8 05             	cmp    $0x5,%eax
  401165:	77 c9                	ja     401130 <phase_6+0x28>
  401167:	4d 39 f4             	cmp    %r14,%r12
  40116a:	74 05                	je     401171 <phase_6+0x69>
  40116c:	4c 89 eb             	mov    %r13,%rbx
  40116f:	eb d4                	jmp    401145 <phase_6+0x3d>
  401171:	be 00 00 00 00       	mov    $0x0,%esi
  401176:	8b 4c b4 30          	mov    0x30(%rsp,%rsi,4),%ecx
  40117a:	b8 01 00 00 00       	mov    $0x1,%eax
  40117f:	ba f0 42 60 00       	mov    $0x6042f0,%edx
  401184:	83 f9 01             	cmp    $0x1,%ecx
  401187:	7e 0b                	jle    401194 <phase_6+0x8c>
  401189:	48 8b 52 08          	mov    0x8(%rdx),%rdx
  40118d:	83 c0 01             	add    $0x1,%eax
  401190:	39 c8                	cmp    %ecx,%eax
  401192:	75 f5                	jne    401189 <phase_6+0x81>
  401194:	48 89 14 f4          	mov    %rdx,(%rsp,%rsi,8)
  401198:	48 83 c6 01          	add    $0x1,%rsi
  40119c:	48 83 fe 06          	cmp    $0x6,%rsi
  4011a0:	75 d4                	jne    401176 <phase_6+0x6e>
  4011a2:	48 8b 1c 24          	mov    (%rsp),%rbx
  4011a6:	48 8b 44 24 08       	mov    0x8(%rsp),%rax
  4011ab:	48 89 43 08          	mov    %rax,0x8(%rbx)
  4011af:	48 8b 54 24 10       	mov    0x10(%rsp),%rdx
  4011b4:	48 89 50 08          	mov    %rdx,0x8(%rax)
  4011b8:	48 8b 44 24 18       	mov    0x18(%rsp),%rax
  4011bd:	48 89 42 08          	mov    %rax,0x8(%rdx)
  4011c1:	48 8b 54 24 20       	mov    0x20(%rsp),%rdx
  4011c6:	48 89 50 08          	mov    %rdx,0x8(%rax)
  4011ca:	48 8b 44 24 28       	mov    0x28(%rsp),%rax
  4011cf:	48 89 42 08          	mov    %rax,0x8(%rdx)
  4011d3:	48 c7 40 08 00 00 00 	movq   $0x0,0x8(%rax)
  4011da:	00 
  4011db:	bd 05 00 00 00       	mov    $0x5,%ebp
  4011e0:	eb 09                	jmp    4011eb <phase_6+0xe3>
  4011e2:	48 8b 5b 08          	mov    0x8(%rbx),%rbx
  4011e6:	83 ed 01             	sub    $0x1,%ebp
  4011e9:	74 11                	je     4011fc <phase_6+0xf4>
  4011eb:	48 8b 43 08          	mov    0x8(%rbx),%rax
  4011ef:	8b 00                	mov    (%rax),%eax
  4011f1:	39 03                	cmp    %eax,(%rbx)
  4011f3:	7d ed                	jge    4011e2 <phase_6+0xda>
  4011f5:	e8 55 04 00 00       	callq  40164f <explode_bomb>
  4011fa:	eb e6                	jmp    4011e2 <phase_6+0xda>
  4011fc:	83 3d 99 35 20 00 21 	cmpl   $0x21,0x203599(%rip)        # 60479c <trap>
  401203:	74 0d                	je     401212 <phase_6+0x10a>
  401205:	48 83 c4 50          	add    $0x50,%rsp
  401209:	5b                   	pop    %rbx
  40120a:	5d                   	pop    %rbp
  40120b:	41 5c                	pop    %r12
  40120d:	41 5d                	pop    %r13
  40120f:	41 5e                	pop    %r14
  401211:	c3                   	retq   
  401212:	e8 38 04 00 00       	callq  40164f <explode_bomb>
  401217:	eb ec                	jmp    401205 <phase_6+0xfd>

0000000000401219 <fun7>:
  401219:	48 85 ff             	test   %rdi,%rdi
  40121c:	74 32                	je     401250 <fun7+0x37>
  40121e:	48 83 ec 08          	sub    $0x8,%rsp
  401222:	8b 17                	mov    (%rdi),%edx
  401224:	39 f2                	cmp    %esi,%edx
  401226:	7f 0c                	jg     401234 <fun7+0x1b>
  401228:	b8 00 00 00 00       	mov    $0x0,%eax
  40122d:	75 12                	jne    401241 <fun7+0x28>
  40122f:	48 83 c4 08          	add    $0x8,%rsp
  401233:	c3                   	retq   
  401234:	48 8b 7f 08          	mov    0x8(%rdi),%rdi
  401238:	e8 dc ff ff ff       	callq  401219 <fun7>
  40123d:	01 c0                	add    %eax,%eax
  40123f:	eb ee                	jmp    40122f <fun7+0x16>
  401241:	48 8b 7f 10          	mov    0x10(%rdi),%rdi
  401245:	e8 cf ff ff ff       	callq  401219 <fun7>
  40124a:	8d 44 00 01          	lea    0x1(%rax,%rax,1),%eax
  40124e:	eb df                	jmp    40122f <fun7+0x16>
  401250:	b8 ff ff ff ff       	mov    $0xffffffff,%eax
  401255:	c3                   	retq   

0000000000401256 <s3cret_phase>:
  401256:	53                   	push   %rbx
  401257:	e8 dd 09 00 00       	callq  401c39 <read_line>
  40125c:	ba 0a 00 00 00       	mov    $0xa,%edx
  401261:	be 00 00 00 00       	mov    $0x0,%esi
  401266:	48 89 c7             	mov    %rax,%rdi
  401269:	e8 a2 f9 ff ff       	callq  400c10 <strtol@plt>
  40126e:	48 89 c3             	mov    %rax,%rbx
  401271:	8d 40 ff             	lea    -0x1(%rax),%eax
  401274:	3d e8 03 00 00       	cmp    $0x3e8,%eax
  401279:	77 2b                	ja     4012a6 <s3cret_phase+0x50>
  40127b:	89 de                	mov    %ebx,%esi
  40127d:	bf 10 41 60 00       	mov    $0x604110,%edi
  401282:	e8 92 ff ff ff       	callq  401219 <fun7>
  401287:	85 c0                	test   %eax,%eax
  401289:	75 22                	jne    4012ad <s3cret_phase+0x57>
  40128b:	bf 98 2a 40 00       	mov    $0x402a98,%edi
  401290:	e8 cb f8 ff ff       	callq  400b60 <puts@plt>
  401295:	bf c0 2a 40 00       	mov    $0x402ac0,%edi
  40129a:	e8 c1 f8 ff ff       	callq  400b60 <puts@plt>
  40129f:	e8 70 03 00 00       	callq  401614 <phase_defused>
  4012a4:	5b                   	pop    %rbx
  4012a5:	c3                   	retq   
  4012a6:	e8 a4 03 00 00       	callq  40164f <explode_bomb>
  4012ab:	eb ce                	jmp    40127b <s3cret_phase+0x25>
  4012ad:	e8 9d 03 00 00       	callq  40164f <explode_bomb>
  4012b2:	eb d7                	jmp    40128b <s3cret_phase+0x35>

00000000004012b4 <sig_handler>:
  4012b4:	48 83 ec 08          	sub    $0x8,%rsp
  4012b8:	bf e8 2a 40 00       	mov    $0x402ae8,%edi
  4012bd:	e8 9e f8 ff ff       	callq  400b60 <puts@plt>
  4012c2:	bf 03 00 00 00       	mov    $0x3,%edi
  4012c7:	e8 d4 f9 ff ff       	callq  400ca0 <sleep@plt>
  4012cc:	bf 8b 30 40 00       	mov    $0x40308b,%edi
  4012d1:	b8 00 00 00 00       	mov    $0x0,%eax
  4012d6:	e8 a5 f8 ff ff       	callq  400b80 <printf@plt>
  4012db:	48 8b 3d 9e 34 20 00 	mov    0x20349e(%rip),%rdi        # 604780 <stdout@@GLIBC_2.2.5>
  4012e2:	e8 39 f9 ff ff       	callq  400c20 <fflush@plt>
  4012e7:	bf 01 00 00 00       	mov    $0x1,%edi
  4012ec:	e8 af f9 ff ff       	callq  400ca0 <sleep@plt>
  4012f1:	bf 93 30 40 00       	mov    $0x403093,%edi
  4012f6:	e8 65 f8 ff ff       	callq  400b60 <puts@plt>
  4012fb:	bf 10 00 00 00       	mov    $0x10,%edi
  401300:	e8 7b f9 ff ff       	callq  400c80 <exit@plt>

0000000000401305 <invalid_phase>:
  401305:	48 83 ec 08          	sub    $0x8,%rsp
  401309:	48 89 fe             	mov    %rdi,%rsi
  40130c:	bf 9b 30 40 00       	mov    $0x40309b,%edi
  401311:	b8 00 00 00 00       	mov    $0x0,%eax
  401316:	e8 65 f8 ff ff       	callq  400b80 <printf@plt>
  40131b:	bf 08 00 00 00       	mov    $0x8,%edi
  401320:	e8 5b f9 ff ff       	callq  400c80 <exit@plt>

0000000000401325 <string_length>:
  401325:	b8 00 00 00 00       	mov    $0x0,%eax
  40132a:	80 3f 00             	cmpb   $0x0,(%rdi)
  40132d:	74 0e                	je     40133d <string_length+0x18>
  40132f:	48 83 c7 01          	add    $0x1,%rdi
  401333:	83 c0 01             	add    $0x1,%eax
  401336:	3d 10 27 00 00       	cmp    $0x2710,%eax
  40133b:	75 ed                	jne    40132a <string_length+0x5>
  40133d:	c3                   	retq   

000000000040133e <strings_not_equal>:
  40133e:	41 54                	push   %r12
  401340:	55                   	push   %rbp
  401341:	53                   	push   %rbx
  401342:	48 89 fb             	mov    %rdi,%rbx
  401345:	48 89 f5             	mov    %rsi,%rbp
  401348:	e8 d8 ff ff ff       	callq  401325 <string_length>
  40134d:	41 89 c4             	mov    %eax,%r12d
  401350:	48 89 ef             	mov    %rbp,%rdi
  401353:	e8 cd ff ff ff       	callq  401325 <string_length>
  401358:	ba 01 00 00 00       	mov    $0x1,%edx
  40135d:	41 39 c4             	cmp    %eax,%r12d
  401360:	75 2f                	jne    401391 <strings_not_equal+0x53>
  401362:	0f b6 03             	movzbl (%rbx),%eax
  401365:	84 c0                	test   %al,%al
  401367:	74 2f                	je     401398 <strings_not_equal+0x5a>
  401369:	3a 45 00             	cmp    0x0(%rbp),%al
  40136c:	75 31                	jne    40139f <strings_not_equal+0x61>
  40136e:	b8 01 00 00 00       	mov    $0x1,%eax
  401373:	0f b6 14 03          	movzbl (%rbx,%rax,1),%edx
  401377:	84 d2                	test   %dl,%dl
  401379:	74 11                	je     40138c <strings_not_equal+0x4e>
  40137b:	48 83 c0 01          	add    $0x1,%rax
  40137f:	38 54 05 ff          	cmp    %dl,-0x1(%rbp,%rax,1)
  401383:	74 ee                	je     401373 <strings_not_equal+0x35>
  401385:	ba 01 00 00 00       	mov    $0x1,%edx
  40138a:	eb 05                	jmp    401391 <strings_not_equal+0x53>
  40138c:	ba 00 00 00 00       	mov    $0x0,%edx
  401391:	89 d0                	mov    %edx,%eax
  401393:	5b                   	pop    %rbx
  401394:	5d                   	pop    %rbp
  401395:	41 5c                	pop    %r12
  401397:	c3                   	retq   
  401398:	ba 00 00 00 00       	mov    $0x0,%edx
  40139d:	eb f2                	jmp    401391 <strings_not_equal+0x53>
  40139f:	ba 01 00 00 00       	mov    $0x1,%edx
  4013a4:	eb eb                	jmp    401391 <strings_not_equal+0x53>

00000000004013a6 <initialize_bomb>:
  4013a6:	53                   	push   %rbx
  4013a7:	48 81 ec 40 20 00 00 	sub    $0x2040,%rsp
  4013ae:	be b4 12 40 00       	mov    $0x4012b4,%esi
  4013b3:	bf 02 00 00 00       	mov    $0x2,%edi
  4013b8:	e8 23 f8 ff ff       	callq  400be0 <signal@plt>
  4013bd:	be 40 00 00 00       	mov    $0x40,%esi
  4013c2:	48 8d bc 24 00 20 00 	lea    0x2000(%rsp),%rdi
  4013c9:	00 
  4013ca:	e8 91 f8 ff ff       	callq  400c60 <gethostname@plt>
  4013cf:	85 c0                	test   %eax,%eax
  4013d1:	75 43                	jne    401416 <initialize_bomb+0x70>
  4013d3:	48 8b 3d a6 2f 20 00 	mov    0x202fa6(%rip),%rdi        # 604380 <host_table>
  4013da:	bb 88 43 60 00       	mov    $0x604388,%ebx
  4013df:	48 85 ff             	test   %rdi,%rdi
  4013e2:	74 1e                	je     401402 <initialize_bomb+0x5c>
  4013e4:	48 8d b4 24 00 20 00 	lea    0x2000(%rsp),%rsi
  4013eb:	00 
  4013ec:	e8 3f f7 ff ff       	callq  400b30 <strcasecmp@plt>
  4013f1:	85 c0                	test   %eax,%eax
  4013f3:	74 51                	je     401446 <initialize_bomb+0xa0>
  4013f5:	48 83 c3 08          	add    $0x8,%rbx
  4013f9:	48 8b 7b f8          	mov    -0x8(%rbx),%rdi
  4013fd:	48 85 ff             	test   %rdi,%rdi
  401400:	75 e2                	jne    4013e4 <initialize_bomb+0x3e>
  401402:	bf 58 2b 40 00       	mov    $0x402b58,%edi
  401407:	e8 54 f7 ff ff       	callq  400b60 <puts@plt>
  40140c:	bf 08 00 00 00       	mov    $0x8,%edi
  401411:	e8 6a f8 ff ff       	callq  400c80 <exit@plt>
  401416:	bf 20 2b 40 00       	mov    $0x402b20,%edi
  40141b:	e8 40 f7 ff ff       	callq  400b60 <puts@plt>
  401420:	bf 08 00 00 00       	mov    $0x8,%edi
  401425:	e8 56 f8 ff ff       	callq  400c80 <exit@plt>
  40142a:	48 89 e6             	mov    %rsp,%rsi
  40142d:	bf ac 30 40 00       	mov    $0x4030ac,%edi
  401432:	b8 00 00 00 00       	mov    $0x0,%eax
  401437:	e8 44 f7 ff ff       	callq  400b80 <printf@plt>
  40143c:	bf 08 00 00 00       	mov    $0x8,%edi
  401441:	e8 3a f8 ff ff       	callq  400c80 <exit@plt>
  401446:	48 89 e7             	mov    %rsp,%rdi
  401449:	e8 0a 12 00 00       	callq  402658 <init_driver>
  40144e:	85 c0                	test   %eax,%eax
  401450:	78 d8                	js     40142a <initialize_bomb+0x84>
  401452:	48 81 c4 40 20 00 00 	add    $0x2040,%rsp
  401459:	5b                   	pop    %rbx
  40145a:	c3                   	retq   

000000000040145b <welcome_message>:
  40145b:	83 ff 01             	cmp    $0x1,%edi
  40145e:	74 01                	je     401461 <welcome_message+0x6>
  401460:	c3                   	retq   
  401461:	48 83 ec 08          	sub    $0x8,%rsp
  401465:	bf 90 2b 40 00       	mov    $0x402b90,%edi
  40146a:	e8 f1 f6 ff ff       	callq  400b60 <puts@plt>
  40146f:	bf d8 2b 40 00       	mov    $0x402bd8,%edi
  401474:	e8 e7 f6 ff ff       	callq  400b60 <puts@plt>
  401479:	bf 20 2c 40 00       	mov    $0x402c20,%edi
  40147e:	e8 dd f6 ff ff       	callq  400b60 <puts@plt>
  401483:	bf 68 2c 40 00       	mov    $0x402c68,%edi
  401488:	e8 d3 f6 ff ff       	callq  400b60 <puts@plt>
  40148d:	bf 68 2c 40 00       	mov    $0x402c68,%edi
  401492:	e8 c9 f6 ff ff       	callq  400b60 <puts@plt>
  401497:	bf b0 2c 40 00       	mov    $0x402cb0,%edi
  40149c:	e8 bf f6 ff ff       	callq  400b60 <puts@plt>
  4014a1:	bf f8 2c 40 00       	mov    $0x402cf8,%edi
  4014a6:	e8 b5 f6 ff ff       	callq  400b60 <puts@plt>
  4014ab:	bf 40 2d 40 00       	mov    $0x402d40,%edi
  4014b0:	e8 ab f6 ff ff       	callq  400b60 <puts@plt>
  4014b5:	bf 88 2d 40 00       	mov    $0x402d88,%edi
  4014ba:	e8 a1 f6 ff ff       	callq  400b60 <puts@plt>
  4014bf:	bf d0 2d 40 00       	mov    $0x402dd0,%edi
  4014c4:	e8 97 f6 ff ff       	callq  400b60 <puts@plt>
  4014c9:	bf 18 2e 40 00       	mov    $0x402e18,%edi
  4014ce:	e8 8d f6 ff ff       	callq  400b60 <puts@plt>
  4014d3:	bf 60 2e 40 00       	mov    $0x402e60,%edi
  4014d8:	e8 83 f6 ff ff       	callq  400b60 <puts@plt>
  4014dd:	bf a8 2e 40 00       	mov    $0x402ea8,%edi
  4014e2:	e8 79 f6 ff ff       	callq  400b60 <puts@plt>
  4014e7:	bf f0 2e 40 00       	mov    $0x402ef0,%edi
  4014ec:	e8 6f f6 ff ff       	callq  400b60 <puts@plt>
  4014f1:	bf 38 2f 40 00       	mov    $0x402f38,%edi
  4014f6:	e8 65 f6 ff ff       	callq  400b60 <puts@plt>
  4014fb:	bf 80 2f 40 00       	mov    $0x402f80,%edi
  401500:	e8 5b f6 ff ff       	callq  400b60 <puts@plt>
  401505:	48 83 c4 08          	add    $0x8,%rsp
  401509:	c3                   	retq   

000000000040150a <initialize_bomb_solve>:
  40150a:	c3                   	retq   

000000000040150b <blank_line>:
  40150b:	55                   	push   %rbp
  40150c:	53                   	push   %rbx
  40150d:	48 83 ec 08          	sub    $0x8,%rsp
  401511:	48 89 fd             	mov    %rdi,%rbp
  401514:	0f b6 5d 00          	movzbl 0x0(%rbp),%ebx
  401518:	84 db                	test   %bl,%bl
  40151a:	74 1e                	je     40153a <blank_line+0x2f>
  40151c:	e8 8f f7 ff ff       	callq  400cb0 <__ctype_b_loc@plt>
  401521:	48 83 c5 01          	add    $0x1,%rbp
  401525:	48 0f be db          	movsbq %bl,%rbx
  401529:	48 8b 00             	mov    (%rax),%rax
  40152c:	f6 44 58 01 20       	testb  $0x20,0x1(%rax,%rbx,2)
  401531:	75 e1                	jne    401514 <blank_line+0x9>
  401533:	b8 00 00 00 00       	mov    $0x0,%eax
  401538:	eb 05                	jmp    40153f <blank_line+0x34>
  40153a:	b8 01 00 00 00       	mov    $0x1,%eax
  40153f:	48 83 c4 08          	add    $0x8,%rsp
  401543:	5b                   	pop    %rbx
  401544:	5d                   	pop    %rbp
  401545:	c3                   	retq   

0000000000401546 <skip>:
  401546:	53                   	push   %rbx
  401547:	48 63 05 52 32 20 00 	movslq 0x203252(%rip),%rax        # 6047a0 <num_input_strings>
  40154e:	48 8d 3c 80          	lea    (%rax,%rax,4),%rdi
  401552:	48 c1 e7 04          	shl    $0x4,%rdi
  401556:	48 81 c7 c0 47 60 00 	add    $0x6047c0,%rdi
  40155d:	48 8b 15 44 32 20 00 	mov    0x203244(%rip),%rdx        # 6047a8 <infile>
  401564:	be 50 00 00 00       	mov    $0x50,%esi
  401569:	e8 62 f6 ff ff       	callq  400bd0 <fgets@plt>
  40156e:	48 89 c3             	mov    %rax,%rbx
  401571:	48 85 c0             	test   %rax,%rax
  401574:	74 0c                	je     401582 <skip+0x3c>
  401576:	48 89 c7             	mov    %rax,%rdi
  401579:	e8 8d ff ff ff       	callq  40150b <blank_line>
  40157e:	85 c0                	test   %eax,%eax
  401580:	75 c5                	jne    401547 <skip+0x1>
  401582:	48 89 d8             	mov    %rbx,%rax
  401585:	5b                   	pop    %rbx
  401586:	c3                   	retq   

0000000000401587 <send_msg>:
  401587:	48 81 ec 08 40 00 00 	sub    $0x4008,%rsp
  40158e:	44 8b 05 0b 32 20 00 	mov    0x20320b(%rip),%r8d        # 6047a0 <num_input_strings>
  401595:	41 8d 40 ff          	lea    -0x1(%r8),%eax
  401599:	48 98                	cltq   
  40159b:	48 8d 04 80          	lea    (%rax,%rax,4),%rax
  40159f:	48 c1 e0 04          	shl    $0x4,%rax
  4015a3:	85 ff                	test   %edi,%edi
  4015a5:	b9 c6 30 40 00       	mov    $0x4030c6,%ecx
  4015aa:	ba ce 30 40 00       	mov    $0x4030ce,%edx
  4015af:	48 0f 44 ca          	cmove  %rdx,%rcx
  4015b3:	4c 8d 88 c0 47 60 00 	lea    0x6047c0(%rax),%r9
  4015ba:	8b 15 b4 2d 20 00    	mov    0x202db4(%rip),%edx        # 604374 <bomb_id>
  4015c0:	be d7 30 40 00       	mov    $0x4030d7,%esi
  4015c5:	48 8d bc 24 00 20 00 	lea    0x2000(%rsp),%rdi
  4015cc:	00 
  4015cd:	b8 00 00 00 00       	mov    $0x0,%eax
  4015d2:	e8 99 f6 ff ff       	callq  400c70 <sprintf@plt>
  4015d7:	49 89 e0             	mov    %rsp,%r8
  4015da:	b9 00 00 00 00       	mov    $0x0,%ecx
  4015df:	48 8d 94 24 00 20 00 	lea    0x2000(%rsp),%rdx
  4015e6:	00 
  4015e7:	be 50 43 60 00       	mov    $0x604350,%esi
  4015ec:	bf 68 43 60 00       	mov    $0x604368,%edi
  4015f1:	e8 13 12 00 00       	callq  402809 <driver_post>
  4015f6:	85 c0                	test   %eax,%eax
  4015f8:	78 08                	js     401602 <send_msg+0x7b>
  4015fa:	48 81 c4 08 40 00 00 	add    $0x4008,%rsp
  401601:	c3                   	retq   
  401602:	48 89 e7             	mov    %rsp,%rdi
  401605:	e8 56 f5 ff ff       	callq  400b60 <puts@plt>
  40160a:	bf 00 00 00 00       	mov    $0x0,%edi
  40160f:	e8 6c f6 ff ff       	callq  400c80 <exit@plt>

0000000000401614 <phase_defused>:
  401614:	48 83 ec 08          	sub    $0x8,%rsp
  401618:	bf 01 00 00 00       	mov    $0x1,%edi
  40161d:	e8 65 ff ff ff       	callq  401587 <send_msg>
  401622:	83 3d 77 31 20 00 05 	cmpl   $0x5,0x203177(%rip)        # 6047a0 <num_input_strings>
  401629:	7e 09                	jle    401634 <phase_defused+0x20>
  40162b:	83 3d 6a 31 20 00 21 	cmpl   $0x21,0x20316a(%rip)        # 60479c <trap>
  401632:	75 05                	jne    401639 <phase_defused+0x25>
  401634:	48 83 c4 08          	add    $0x8,%rsp
  401638:	c3                   	retq   
  401639:	bf c8 2f 40 00       	mov    $0x402fc8,%edi
  40163e:	e8 1d f5 ff ff       	callq  400b60 <puts@plt>
  401643:	bf f8 2f 40 00       	mov    $0x402ff8,%edi
  401648:	e8 13 f5 ff ff       	callq  400b60 <puts@plt>
  40164d:	eb e5                	jmp    401634 <phase_defused+0x20>

000000000040164f <explode_bomb>:
  40164f:	48 81 ec d8 00 00 00 	sub    $0xd8,%rsp
  401656:	83 3d 43 31 20 00 06 	cmpl   $0x6,0x203143(%rip)        # 6047a0 <num_input_strings>
  40165d:	77 17                	ja     401676 <explode_bomb+0x27>
  40165f:	8b 05 3b 31 20 00    	mov    0x20313b(%rip),%eax        # 6047a0 <num_input_strings>
  401665:	ff 24 c5 c0 32 40 00 	jmpq   *0x4032c0(,%rax,8)
  40166c:	bf e3 30 40 00       	mov    $0x4030e3,%edi
  401671:	e8 ea f4 ff ff       	callq  400b60 <puts@plt>
  401676:	48 89 e7             	mov    %rsp,%rdi
  401679:	b9 19 00 00 00       	mov    $0x19,%ecx
  40167e:	b8 00 00 00 00       	mov    $0x0,%eax
  401683:	f3 48 ab             	rep stos %rax,%es:(%rdi)
  401686:	c6 04 24 53          	movb   $0x53,(%rsp)
  40168a:	c6 44 24 01 6f       	movb   $0x6f,0x1(%rsp)
  40168f:	c6 44 24 02 20       	movb   $0x20,0x2(%rsp)
  401694:	c6 44 24 03 79       	movb   $0x79,0x3(%rsp)
  401699:	c6 44 24 04 6f       	movb   $0x6f,0x4(%rsp)
  40169e:	c6 44 24 05 75       	movb   $0x75,0x5(%rsp)
  4016a3:	c6 44 24 06 20       	movb   $0x20,0x6(%rsp)
  4016a8:	c6 44 24 07 6d       	movb   $0x6d,0x7(%rsp)
  4016ad:	c6 44 24 08 61       	movb   $0x61,0x8(%rsp)
  4016b2:	c6 44 24 09 64       	movb   $0x64,0x9(%rsp)
  4016b7:	c6 44 24 0a 65       	movb   $0x65,0xa(%rsp)
  4016bc:	c6 44 24 0b 20       	movb   $0x20,0xb(%rsp)
  4016c1:	c6 44 24 0c 69       	movb   $0x69,0xc(%rsp)
  4016c6:	c6 44 24 0d 74       	movb   $0x74,0xd(%rsp)
  4016cb:	c6 44 24 0e 20       	movb   $0x20,0xe(%rsp)
  4016d0:	c6 44 24 0f 74       	movb   $0x74,0xf(%rsp)
  4016d5:	c6 44 24 10 6f       	movb   $0x6f,0x10(%rsp)
  4016da:	c6 44 24 11 20       	movb   $0x20,0x11(%rsp)
  4016df:	c6 44 24 12 74       	movb   $0x74,0x12(%rsp)
  4016e4:	c6 44 24 13 68       	movb   $0x68,0x13(%rsp)
  4016e9:	c6 44 24 14 65       	movb   $0x65,0x14(%rsp)
  4016ee:	c6 44 24 15 20       	movb   $0x20,0x15(%rsp)
  4016f3:	c6 44 24 16 73       	movb   $0x73,0x16(%rsp)
  4016f8:	c6 44 24 17 33       	movb   $0x33,0x17(%rsp)
  4016fd:	c6 44 24 18 63       	movb   $0x63,0x18(%rsp)
  401702:	c6 44 24 19 72       	movb   $0x72,0x19(%rsp)
  401707:	c6 44 24 1a 65       	movb   $0x65,0x1a(%rsp)
  40170c:	c6 44 24 1b 74       	movb   $0x74,0x1b(%rsp)
  401711:	c6 44 24 1c 20       	movb   $0x20,0x1c(%rsp)
  401716:	c6 44 24 1d 70       	movb   $0x70,0x1d(%rsp)
  40171b:	c6 44 24 1e 68       	movb   $0x68,0x1e(%rsp)
  401720:	c6 44 24 1f 61       	movb   $0x61,0x1f(%rsp)
  401725:	c6 44 24 20 73       	movb   $0x73,0x20(%rsp)
  40172a:	c6 44 24 21 65       	movb   $0x65,0x21(%rsp)
  40172f:	c6 44 24 22 2e       	movb   $0x2e,0x22(%rsp)
  401734:	c6 44 24 23 20       	movb   $0x20,0x23(%rsp)
  401739:	c6 44 24 24 20       	movb   $0x20,0x24(%rsp)
  40173e:	c6 44 24 25 4e       	movb   $0x4e,0x25(%rsp)
  401743:	c6 44 24 26 69       	movb   $0x69,0x26(%rsp)
  401748:	c6 44 24 27 63       	movb   $0x63,0x27(%rsp)
  40174d:	c6 44 24 28 65       	movb   $0x65,0x28(%rsp)
  401752:	c6 44 24 29 2c       	movb   $0x2c,0x29(%rsp)
  401757:	c6 44 24 2a 20       	movb   $0x20,0x2a(%rsp)
  40175c:	c6 44 24 2b 62       	movb   $0x62,0x2b(%rsp)
  401761:	c6 44 24 2c 75       	movb   $0x75,0x2c(%rsp)
  401766:	c6 44 24 2d 74       	movb   $0x74,0x2d(%rsp)
  40176b:	c6 44 24 2e 0a       	movb   $0xa,0x2e(%rsp)
  401770:	c6 44 24 2f 64       	movb   $0x64,0x2f(%rsp)
  401775:	c6 44 24 30 6f       	movb   $0x6f,0x30(%rsp)
  40177a:	c6 44 24 31 6e       	movb   $0x6e,0x31(%rsp)
  40177f:	c6 44 24 32 27       	movb   $0x27,0x32(%rsp)
  401784:	c6 44 24 33 74       	movb   $0x74,0x33(%rsp)
  401789:	c6 44 24 34 20       	movb   $0x20,0x34(%rsp)
  40178e:	c6 44 24 35 74       	movb   $0x74,0x35(%rsp)
  401793:	c6 44 24 36 65       	movb   $0x65,0x36(%rsp)
  401798:	c6 44 24 37 6c       	movb   $0x6c,0x37(%rsp)
  40179d:	c6 44 24 38 6c       	movb   $0x6c,0x38(%rsp)
  4017a2:	c6 44 24 39 20       	movb   $0x20,0x39(%rsp)
  4017a7:	c6 44 24 3a 61       	movb   $0x61,0x3a(%rsp)
  4017ac:	c6 44 24 3b 6e       	movb   $0x6e,0x3b(%rsp)
  4017b1:	c6 44 24 3c 79       	movb   $0x79,0x3c(%rsp)
  4017b6:	c6 44 24 3d 6f       	movb   $0x6f,0x3d(%rsp)
  4017bb:	c6 44 24 3e 6e       	movb   $0x6e,0x3e(%rsp)
  4017c0:	c6 44 24 3f 65       	movb   $0x65,0x3f(%rsp)
  4017c5:	c6 44 24 40 20       	movb   $0x20,0x40(%rsp)
  4017ca:	c6 44 24 41 61       	movb   $0x61,0x41(%rsp)
  4017cf:	c6 44 24 42 62       	movb   $0x62,0x42(%rsp)
  4017d4:	c6 44 24 43 6f       	movb   $0x6f,0x43(%rsp)
  4017d9:	c6 44 24 44 75       	movb   $0x75,0x44(%rsp)
  4017de:	c6 44 24 45 74       	movb   $0x74,0x45(%rsp)
  4017e3:	c6 44 24 46 20       	movb   $0x20,0x46(%rsp)
  4017e8:	c6 44 24 47 69       	movb   $0x69,0x47(%rsp)
  4017ed:	c6 44 24 48 74       	movb   $0x74,0x48(%rsp)
  4017f2:	c6 44 24 49 20       	movb   $0x20,0x49(%rsp)
  4017f7:	c6 44 24 4a 28       	movb   $0x28,0x4a(%rsp)
  4017fc:	c6 44 24 4b 65       	movb   $0x65,0x4b(%rsp)
  401801:	c6 44 24 4c 73       	movb   $0x73,0x4c(%rsp)
  401806:	c6 44 24 4d 70       	movb   $0x70,0x4d(%rsp)
  40180b:	c6 44 24 4e 65       	movb   $0x65,0x4e(%rsp)
  401810:	c6 44 24 4f 63       	movb   $0x63,0x4f(%rsp)
  401815:	c6 44 24 50 69       	movb   $0x69,0x50(%rsp)
  40181a:	c6 44 24 51 61       	movb   $0x61,0x51(%rsp)
  40181f:	c6 44 24 52 6c       	movb   $0x6c,0x52(%rsp)
  401824:	c6 44 24 53 6c       	movb   $0x6c,0x53(%rsp)
  401829:	c6 44 24 54 79       	movb   $0x79,0x54(%rsp)
  40182e:	c6 44 24 55 20       	movb   $0x20,0x55(%rsp)
  401833:	c6 44 24 56 6f       	movb   $0x6f,0x56(%rsp)
  401838:	c6 44 24 57 6e       	movb   $0x6e,0x57(%rsp)
  40183d:	c6 44 24 58 20       	movb   $0x20,0x58(%rsp)
  401842:	c6 44 24 59 50       	movb   $0x50,0x59(%rsp)
  401847:	c6 44 24 5a 69       	movb   $0x69,0x5a(%rsp)
  40184c:	c6 44 24 5b 61       	movb   $0x61,0x5b(%rsp)
  401851:	c6 44 24 5c 7a       	movb   $0x7a,0x5c(%rsp)
  401856:	c6 44 24 5d 7a       	movb   $0x7a,0x5d(%rsp)
  40185b:	c6 44 24 5e 61       	movb   $0x61,0x5e(%rsp)
  401860:	c6 44 24 5f 29       	movb   $0x29,0x5f(%rsp)
  401865:	c6 44 24 60 2e       	movb   $0x2e,0x60(%rsp)
  40186a:	c6 44 24 61 0a       	movb   $0xa,0x61(%rsp)
  40186f:	c6 44 24 62 49       	movb   $0x49,0x62(%rsp)
  401874:	c6 44 24 63 66       	movb   $0x66,0x63(%rsp)
  401879:	c6 44 24 64 20       	movb   $0x20,0x64(%rsp)
  40187e:	c6 44 24 65 79       	movb   $0x79,0x65(%rsp)
  401883:	c6 44 24 66 6f       	movb   $0x6f,0x66(%rsp)
  401888:	c6 44 24 67 75       	movb   $0x75,0x67(%rsp)
  40188d:	c6 44 24 68 20       	movb   $0x20,0x68(%rsp)
  401892:	c6 44 24 69 64       	movb   $0x64,0x69(%rsp)
  401897:	c6 44 24 6a 6f       	movb   $0x6f,0x6a(%rsp)
  40189c:	c6 44 24 6b 20       	movb   $0x20,0x6b(%rsp)
  4018a1:	c6 44 24 6c 79       	movb   $0x79,0x6c(%rsp)
  4018a6:	c6 44 24 6d 6f       	movb   $0x6f,0x6d(%rsp)
  4018ab:	c6 44 24 6e 75       	movb   $0x75,0x6e(%rsp)
  4018b0:	c6 44 24 6f 20       	movb   $0x20,0x6f(%rsp)
  4018b5:	c6 44 24 70 77       	movb   $0x77,0x70(%rsp)
  4018ba:	c6 44 24 71 6f       	movb   $0x6f,0x71(%rsp)
  4018bf:	c6 44 24 72 6e       	movb   $0x6e,0x72(%rsp)
  4018c4:	c6 44 24 73 27       	movb   $0x27,0x73(%rsp)
  4018c9:	c6 44 24 74 74       	movb   $0x74,0x74(%rsp)
  4018ce:	c6 44 24 75 20       	movb   $0x20,0x75(%rsp)
  4018d3:	c6 44 24 76 67       	movb   $0x67,0x76(%rsp)
  4018d8:	c6 44 24 77 65       	movb   $0x65,0x77(%rsp)
  4018dd:	c6 44 24 78 74       	movb   $0x74,0x78(%rsp)
  4018e2:	c6 44 24 79 20       	movb   $0x20,0x79(%rsp)
  4018e7:	c6 44 24 7a 61       	movb   $0x61,0x7a(%rsp)
  4018ec:	c6 44 24 7b 6e       	movb   $0x6e,0x7b(%rsp)
  4018f1:	c6 44 24 7c 79       	movb   $0x79,0x7c(%rsp)
  4018f6:	c6 44 24 7d 20       	movb   $0x20,0x7d(%rsp)
  4018fb:	c6 44 24 7e 65       	movb   $0x65,0x7e(%rsp)
  401900:	c6 44 24 7f 78       	movb   $0x78,0x7f(%rsp)
  401905:	c6 84 24 80 00 00 00 	movb   $0x74,0x80(%rsp)
  40190c:	74 
  40190d:	c6 84 24 81 00 00 00 	movb   $0x72,0x81(%rsp)
  401914:	72 
  401915:	c6 84 24 82 00 00 00 	movb   $0x61,0x82(%rsp)
  40191c:	61 
  40191d:	c6 84 24 83 00 00 00 	movb   $0x20,0x83(%rsp)
  401924:	20 
  401925:	c6 84 24 84 00 00 00 	movb   $0x63,0x84(%rsp)
  40192c:	63 
  40192d:	c6 84 24 85 00 00 00 	movb   $0x72,0x85(%rsp)
  401934:	72 
  401935:	c6 84 24 86 00 00 00 	movb   $0x65,0x86(%rsp)
  40193c:	65 
  40193d:	c6 84 24 87 00 00 00 	movb   $0x64,0x87(%rsp)
  401944:	64 
  401945:	c6 84 24 88 00 00 00 	movb   $0x69,0x88(%rsp)
  40194c:	69 
  40194d:	c6 84 24 89 00 00 00 	movb   $0x74,0x89(%rsp)
  401954:	74 
  401955:	c6 84 24 8a 00 00 00 	movb   $0x21,0x8a(%rsp)
  40195c:	21 
  40195d:	c6 84 24 8b 00 00 00 	movb   $0x20,0x8b(%rsp)
  401964:	20 
  401965:	c6 84 24 8c 00 00 00 	movb   $0x61,0x8c(%rsp)
  40196c:	61 
  40196d:	c6 84 24 8d 00 00 00 	movb   $0x6e,0x8d(%rsp)
  401974:	6e 
  401975:	c6 84 24 8e 00 00 00 	movb   $0x79,0x8e(%rsp)
  40197c:	79 
  40197d:	c6 84 24 8f 00 00 00 	movb   $0x77,0x8f(%rsp)
  401984:	77 
  401985:	c6 84 24 90 00 00 00 	movb   $0x61,0x90(%rsp)
  40198c:	61 
  40198d:	c6 84 24 91 00 00 00 	movb   $0x79,0x91(%rsp)
  401994:	79 
  401995:	c6 84 24 92 00 00 00 	movb   $0x73,0x92(%rsp)
  40199c:	73 
  40199d:	c6 84 24 93 00 00 00 	movb   $0x2c,0x93(%rsp)
  4019a4:	2c 
  4019a5:	c6 84 24 94 00 00 00 	movb   $0xa,0x94(%rsp)
  4019ac:	0a 
  4019ad:	c6 84 24 95 00 00 00 	movb   $0x66,0x95(%rsp)
  4019b4:	66 
  4019b5:	c6 84 24 96 00 00 00 	movb   $0x69,0x96(%rsp)
  4019bc:	69 
  4019bd:	c6 84 24 97 00 00 00 	movb   $0x6e,0x97(%rsp)
  4019c4:	6e 
  4019c5:	c6 84 24 98 00 00 00 	movb   $0x64,0x98(%rsp)
  4019cc:	64 
  4019cd:	c6 84 24 99 00 00 00 	movb   $0x69,0x99(%rsp)
  4019d4:	69 
  4019d5:	c6 84 24 9a 00 00 00 	movb   $0x6e,0x9a(%rsp)
  4019dc:	6e 
  4019dd:	c6 84 24 9b 00 00 00 	movb   $0x67,0x9b(%rsp)
  4019e4:	67 
  4019e5:	c6 84 24 9c 00 00 00 	movb   $0x20,0x9c(%rsp)
  4019ec:	20 
  4019ed:	c6 84 24 9d 00 00 00 	movb   $0x69,0x9d(%rsp)
  4019f4:	69 
  4019f5:	c6 84 24 9e 00 00 00 	movb   $0x74,0x9e(%rsp)
  4019fc:	74 
  4019fd:	c6 84 24 9f 00 00 00 	movb   $0x20,0x9f(%rsp)
  401a04:	20 
  401a05:	c6 84 24 a0 00 00 00 	movb   $0x61,0xa0(%rsp)
  401a0c:	61 
  401a0d:	c6 84 24 a1 00 00 00 	movb   $0x6e,0xa1(%rsp)
  401a14:	6e 
  401a15:	c6 84 24 a2 00 00 00 	movb   $0x64,0xa2(%rsp)
  401a1c:	64 
  401a1d:	c6 84 24 a3 00 00 00 	movb   $0x20,0xa3(%rsp)
  401a24:	20 
  401a25:	c6 84 24 a4 00 00 00 	movb   $0x73,0xa4(%rsp)
  401a2c:	73 
  401a2d:	c6 84 24 a5 00 00 00 	movb   $0x6f,0xa5(%rsp)
  401a34:	6f 
  401a35:	c6 84 24 a6 00 00 00 	movb   $0x6c,0xa6(%rsp)
  401a3c:	6c 
  401a3d:	c6 84 24 a7 00 00 00 	movb   $0x76,0xa7(%rsp)
  401a44:	76 
  401a45:	c6 84 24 a8 00 00 00 	movb   $0x69,0xa8(%rsp)
  401a4c:	69 
  401a4d:	c6 84 24 a9 00 00 00 	movb   $0x6e,0xa9(%rsp)
  401a54:	6e 
  401a55:	c6 84 24 aa 00 00 00 	movb   $0x67,0xaa(%rsp)
  401a5c:	67 
  401a5d:	c6 84 24 ab 00 00 00 	movb   $0x20,0xab(%rsp)
  401a64:	20 
  401a65:	c6 84 24 ac 00 00 00 	movb   $0x69,0xac(%rsp)
  401a6c:	69 
  401a6d:	c6 84 24 ad 00 00 00 	movb   $0x74,0xad(%rsp)
  401a74:	74 
  401a75:	c6 84 24 ae 00 00 00 	movb   $0x20,0xae(%rsp)
  401a7c:	20 
  401a7d:	c6 84 24 af 00 00 00 	movb   $0x61,0xaf(%rsp)
  401a84:	61 
  401a85:	c6 84 24 b0 00 00 00 	movb   $0x72,0xb0(%rsp)
  401a8c:	72 
  401a8d:	c6 84 24 b1 00 00 00 	movb   $0x65,0xb1(%rsp)
  401a94:	65 
  401a95:	c6 84 24 b2 00 00 00 	movb   $0x20,0xb2(%rsp)
  401a9c:	20 
  401a9d:	c6 84 24 b3 00 00 00 	movb   $0x71,0xb3(%rsp)
  401aa4:	71 
  401aa5:	c6 84 24 b4 00 00 00 	movb   $0x75,0xb4(%rsp)
  401aac:	75 
  401aad:	c6 84 24 b5 00 00 00 	movb   $0x69,0xb5(%rsp)
  401ab4:	69 
  401ab5:	c6 84 24 b6 00 00 00 	movb   $0x74,0xb6(%rsp)
  401abc:	74 
  401abd:	c6 84 24 b7 00 00 00 	movb   $0x65,0xb7(%rsp)
  401ac4:	65 
  401ac5:	c6 84 24 b8 00 00 00 	movb   $0x20,0xb8(%rsp)
  401acc:	20 
  401acd:	c6 84 24 b9 00 00 00 	movb   $0x64,0xb9(%rsp)
  401ad4:	64 
  401ad5:	c6 84 24 ba 00 00 00 	movb   $0x69,0xba(%rsp)
  401adc:	69 
  401add:	c6 84 24 bb 00 00 00 	movb   $0x66,0xbb(%rsp)
  401ae4:	66 
  401ae5:	c6 84 24 bc 00 00 00 	movb   $0x66,0xbc(%rsp)
  401aec:	66 
  401aed:	c6 84 24 bd 00 00 00 	movb   $0x65,0xbd(%rsp)
  401af4:	65 
  401af5:	c6 84 24 be 00 00 00 	movb   $0x72,0xbe(%rsp)
  401afc:	72 
  401afd:	c6 84 24 bf 00 00 00 	movb   $0x65,0xbf(%rsp)
  401b04:	65 
  401b05:	c6 84 24 c0 00 00 00 	movb   $0x6e,0xc0(%rsp)
  401b0c:	6e 
  401b0d:	c6 84 24 c1 00 00 00 	movb   $0x74,0xc1(%rsp)
  401b14:	74 
  401b15:	c6 84 24 c2 00 00 00 	movb   $0x2e,0xc2(%rsp)
  401b1c:	2e 
  401b1d:	c6 84 24 c3 00 00 00 	movb   $0x2e,0xc3(%rsp)
  401b24:	2e 
  401b25:	c6 84 24 c4 00 00 00 	movb   $0x2e,0xc4(%rsp)
  401b2c:	2e 
  401b2d:	83 3d 6c 2c 20 00 06 	cmpl   $0x6,0x202c6c(%rip)        # 6047a0 <num_input_strings>
  401b34:	75 0d                	jne    401b43 <explode_bomb+0x4f4>
  401b36:	83 3d 5f 2c 20 00 21 	cmpl   $0x21,0x202c5f(%rip)        # 60479c <trap>
  401b3d:	0f 84 8c 00 00 00    	je     401bcf <explode_bomb+0x580>
  401b43:	bf 3d 31 40 00       	mov    $0x40313d,%edi
  401b48:	e8 13 f0 ff ff       	callq  400b60 <puts@plt>
  401b4d:	bf 46 31 40 00       	mov    $0x403146,%edi
  401b52:	e8 09 f0 ff ff       	callq  400b60 <puts@plt>
  401b57:	bf 00 00 00 00       	mov    $0x0,%edi
  401b5c:	e8 26 fa ff ff       	callq  401587 <send_msg>
  401b61:	bf 68 30 40 00       	mov    $0x403068,%edi
  401b66:	e8 f5 ef ff ff       	callq  400b60 <puts@plt>
  401b6b:	bf 08 00 00 00       	mov    $0x8,%edi
  401b70:	e8 0b f1 ff ff       	callq  400c80 <exit@plt>
  401b75:	bf 40 30 40 00       	mov    $0x403040,%edi
  401b7a:	e8 e1 ef ff ff       	callq  400b60 <puts@plt>
  401b7f:	e9 f2 fa ff ff       	jmpq   401676 <explode_bomb+0x27>
  401b84:	bf e8 30 40 00       	mov    $0x4030e8,%edi
  401b89:	e8 d2 ef ff ff       	callq  400b60 <puts@plt>
  401b8e:	e9 e3 fa ff ff       	jmpq   401676 <explode_bomb+0x27>
  401b93:	bf fd 30 40 00       	mov    $0x4030fd,%edi
  401b98:	e8 c3 ef ff ff       	callq  400b60 <puts@plt>
  401b9d:	e9 d4 fa ff ff       	jmpq   401676 <explode_bomb+0x27>
  401ba2:	bf 13 31 40 00       	mov    $0x403113,%edi
  401ba7:	e8 b4 ef ff ff       	callq  400b60 <puts@plt>
  401bac:	e9 c5 fa ff ff       	jmpq   401676 <explode_bomb+0x27>
  401bb1:	bf 2a 31 40 00       	mov    $0x40312a,%edi
  401bb6:	e8 a5 ef ff ff       	callq  400b60 <puts@plt>
  401bbb:	e9 b6 fa ff ff       	jmpq   401676 <explode_bomb+0x27>
  401bc0:	bf 33 31 40 00       	mov    $0x403133,%edi
  401bc5:	e8 96 ef ff ff       	callq  400b60 <puts@plt>
  401bca:	e9 a7 fa ff ff       	jmpq   401676 <explode_bomb+0x27>
  401bcf:	48 89 e7             	mov    %rsp,%rdi
  401bd2:	e8 89 ef ff ff       	callq  400b60 <puts@plt>
  401bd7:	e8 38 fa ff ff       	callq  401614 <phase_defused>
  401bdc:	c7 05 b6 2b 20 00 00 	movl   $0x0,0x202bb6(%rip)        # 60479c <trap>
  401be3:	00 00 00 
  401be6:	b8 00 00 00 00       	mov    $0x0,%eax
  401beb:	e8 66 f6 ff ff       	callq  401256 <s3cret_phase>
  401bf0:	bf 00 00 00 00       	mov    $0x0,%edi
  401bf5:	e8 86 f0 ff ff       	callq  400c80 <exit@plt>

0000000000401bfa <read_six_numbers>:
  401bfa:	48 83 ec 08          	sub    $0x8,%rsp
  401bfe:	48 89 f2             	mov    %rsi,%rdx
  401c01:	48 8d 4e 04          	lea    0x4(%rsi),%rcx
  401c05:	48 8d 46 14          	lea    0x14(%rsi),%rax
  401c09:	50                   	push   %rax
  401c0a:	48 8d 46 10          	lea    0x10(%rsi),%rax
  401c0e:	50                   	push   %rax
  401c0f:	4c 8d 4e 0c          	lea    0xc(%rsi),%r9
  401c13:	4c 8d 46 08          	lea    0x8(%rsi),%r8
  401c17:	be 5d 31 40 00       	mov    $0x40315d,%esi
  401c1c:	b8 00 00 00 00       	mov    $0x0,%eax
  401c21:	e8 0a f0 ff ff       	callq  400c30 <__isoc99_sscanf@plt>
  401c26:	48 83 c4 10          	add    $0x10,%rsp
  401c2a:	83 f8 05             	cmp    $0x5,%eax
  401c2d:	7e 05                	jle    401c34 <read_six_numbers+0x3a>
  401c2f:	48 83 c4 08          	add    $0x8,%rsp
  401c33:	c3                   	retq   
  401c34:	e8 16 fa ff ff       	callq  40164f <explode_bomb>

0000000000401c39 <read_line>:
  401c39:	48 83 ec 08          	sub    $0x8,%rsp
  401c3d:	b8 00 00 00 00       	mov    $0x0,%eax
  401c42:	e8 ff f8 ff ff       	callq  401546 <skip>
  401c47:	48 85 c0             	test   %rax,%rax
  401c4a:	74 63                	je     401caf <read_line+0x76>
  401c4c:	8b 35 4e 2b 20 00    	mov    0x202b4e(%rip),%esi        # 6047a0 <num_input_strings>
  401c52:	48 63 c6             	movslq %esi,%rax
  401c55:	48 8d 14 80          	lea    (%rax,%rax,4),%rdx
  401c59:	48 c1 e2 04          	shl    $0x4,%rdx
  401c5d:	48 81 c2 c0 47 60 00 	add    $0x6047c0,%rdx
  401c64:	48 c7 c1 ff ff ff ff 	mov    $0xffffffffffffffff,%rcx
  401c6b:	b8 00 00 00 00       	mov    $0x0,%eax
  401c70:	48 89 d7             	mov    %rdx,%rdi
  401c73:	f2 ae                	repnz scas %es:(%rdi),%al
  401c75:	48 f7 d1             	not    %rcx
  401c78:	48 83 e9 01          	sub    $0x1,%rcx
  401c7c:	83 f9 4e             	cmp    $0x4e,%ecx
  401c7f:	0f 8f 9c 00 00 00    	jg     401d21 <read_line+0xe8>
  401c85:	83 e9 01             	sub    $0x1,%ecx
  401c88:	48 63 c9             	movslq %ecx,%rcx
  401c8b:	48 63 c6             	movslq %esi,%rax
  401c8e:	48 8d 04 80          	lea    (%rax,%rax,4),%rax
  401c92:	48 c1 e0 04          	shl    $0x4,%rax
  401c96:	c6 84 01 c0 47 60 00 	movb   $0x0,0x6047c0(%rcx,%rax,1)
  401c9d:	00 
  401c9e:	8d 46 01             	lea    0x1(%rsi),%eax
  401ca1:	89 05 f9 2a 20 00    	mov    %eax,0x202af9(%rip)        # 6047a0 <num_input_strings>
  401ca7:	48 89 d0             	mov    %rdx,%rax
  401caa:	48 83 c4 08          	add    $0x8,%rsp
  401cae:	c3                   	retq   
  401caf:	48 8b 05 d2 2a 20 00 	mov    0x202ad2(%rip),%rax        # 604788 <stdin@@GLIBC_2.2.5>
  401cb6:	48 39 05 eb 2a 20 00 	cmp    %rax,0x202aeb(%rip)        # 6047a8 <infile>
  401cbd:	74 19                	je     401cd8 <read_line+0x9f>
  401cbf:	bf 8d 31 40 00       	mov    $0x40318d,%edi
  401cc4:	e8 57 ee ff ff       	callq  400b20 <getenv@plt>
  401cc9:	48 85 c0             	test   %rax,%rax
  401ccc:	74 1e                	je     401cec <read_line+0xb3>
  401cce:	bf 00 00 00 00       	mov    $0x0,%edi
  401cd3:	e8 a8 ef ff ff       	callq  400c80 <exit@plt>
  401cd8:	bf 6f 31 40 00       	mov    $0x40316f,%edi
  401cdd:	e8 7e ee ff ff       	callq  400b60 <puts@plt>
  401ce2:	bf 08 00 00 00       	mov    $0x8,%edi
  401ce7:	e8 94 ef ff ff       	callq  400c80 <exit@plt>
  401cec:	48 8b 05 95 2a 20 00 	mov    0x202a95(%rip),%rax        # 604788 <stdin@@GLIBC_2.2.5>
  401cf3:	48 89 05 ae 2a 20 00 	mov    %rax,0x202aae(%rip)        # 6047a8 <infile>
  401cfa:	b8 00 00 00 00       	mov    $0x0,%eax
  401cff:	e8 42 f8 ff ff       	callq  401546 <skip>
  401d04:	48 85 c0             	test   %rax,%rax
  401d07:	0f 85 3f ff ff ff    	jne    401c4c <read_line+0x13>
  401d0d:	bf 6f 31 40 00       	mov    $0x40316f,%edi
  401d12:	e8 49 ee ff ff       	callq  400b60 <puts@plt>
  401d17:	bf 00 00 00 00       	mov    $0x0,%edi
  401d1c:	e8 5f ef ff ff       	callq  400c80 <exit@plt>
  401d21:	bf 98 31 40 00       	mov    $0x403198,%edi
  401d26:	e8 35 ee ff ff       	callq  400b60 <puts@plt>
  401d2b:	8b 05 6f 2a 20 00    	mov    0x202a6f(%rip),%eax        # 6047a0 <num_input_strings>
  401d31:	8d 50 01             	lea    0x1(%rax),%edx
  401d34:	89 15 66 2a 20 00    	mov    %edx,0x202a66(%rip)        # 6047a0 <num_input_strings>
  401d3a:	48 98                	cltq   
  401d3c:	48 6b c0 50          	imul   $0x50,%rax,%rax
  401d40:	48 be 2a 2a 2a 74 72 	movabs $0x636e7572742a2a2a,%rsi
  401d47:	75 6e 63 
  401d4a:	48 bf 61 74 65 64 2a 	movabs $0x2a2a2a64657461,%rdi
  401d51:	2a 2a 00 
  401d54:	48 89 b0 c0 47 60 00 	mov    %rsi,0x6047c0(%rax)
  401d5b:	48 89 b8 c8 47 60 00 	mov    %rdi,0x6047c8(%rax)
  401d62:	e8 e8 f8 ff ff       	callq  40164f <explode_bomb>

0000000000401d67 <sigalrm_handler>:
  401d67:	48 83 ec 08          	sub    $0x8,%rsp
  401d6b:	ba 00 00 00 00       	mov    $0x0,%edx
  401d70:	be f8 32 40 00       	mov    $0x4032f8,%esi
  401d75:	48 8b 3d 14 2a 20 00 	mov    0x202a14(%rip),%rdi        # 604790 <stderr@@GLIBC_2.2.5>
  401d7c:	b8 00 00 00 00       	mov    $0x0,%eax
  401d81:	e8 7a ee ff ff       	callq  400c00 <fprintf@plt>
  401d86:	bf 01 00 00 00       	mov    $0x1,%edi
  401d8b:	e8 f0 ee ff ff       	callq  400c80 <exit@plt>

0000000000401d90 <rio_readlineb>:
  401d90:	41 56                	push   %r14
  401d92:	41 55                	push   %r13
  401d94:	41 54                	push   %r12
  401d96:	55                   	push   %rbp
  401d97:	53                   	push   %rbx
  401d98:	48 89 f5             	mov    %rsi,%rbp
  401d9b:	48 83 fa 01          	cmp    $0x1,%rdx
  401d9f:	0f 86 9d 00 00 00    	jbe    401e42 <rio_readlineb+0xb2>
  401da5:	48 89 fb             	mov    %rdi,%rbx
  401da8:	4c 8d 74 16 ff       	lea    -0x1(%rsi,%rdx,1),%r14
  401dad:	41 bd 01 00 00 00    	mov    $0x1,%r13d
  401db3:	4c 8d 67 10          	lea    0x10(%rdi),%r12
  401db7:	eb 17                	jmp    401dd0 <rio_readlineb+0x40>
  401db9:	e8 82 ed ff ff       	callq  400b40 <__errno_location@plt>
  401dbe:	83 38 04             	cmpl   $0x4,(%rax)
  401dc1:	74 0d                	je     401dd0 <rio_readlineb+0x40>
  401dc3:	48 c7 c0 ff ff ff ff 	mov    $0xffffffffffffffff,%rax
  401dca:	eb 28                	jmp    401df4 <rio_readlineb+0x64>
  401dcc:	4c 89 63 08          	mov    %r12,0x8(%rbx)
  401dd0:	8b 43 04             	mov    0x4(%rbx),%eax
  401dd3:	85 c0                	test   %eax,%eax
  401dd5:	7f 2e                	jg     401e05 <rio_readlineb+0x75>
  401dd7:	ba 00 20 00 00       	mov    $0x2000,%edx
  401ddc:	4c 89 e6             	mov    %r12,%rsi
  401ddf:	8b 3b                	mov    (%rbx),%edi
  401de1:	e8 ca ed ff ff       	callq  400bb0 <read@plt>
  401de6:	89 43 04             	mov    %eax,0x4(%rbx)
  401de9:	85 c0                	test   %eax,%eax
  401deb:	78 cc                	js     401db9 <rio_readlineb+0x29>
  401ded:	75 dd                	jne    401dcc <rio_readlineb+0x3c>
  401def:	b8 00 00 00 00       	mov    $0x0,%eax
  401df4:	85 c0                	test   %eax,%eax
  401df6:	75 52                	jne    401e4a <rio_readlineb+0xba>
  401df8:	b8 00 00 00 00       	mov    $0x0,%eax
  401dfd:	41 83 fd 01          	cmp    $0x1,%r13d
  401e01:	75 2f                	jne    401e32 <rio_readlineb+0xa2>
  401e03:	eb 34                	jmp    401e39 <rio_readlineb+0xa9>
  401e05:	48 8b 53 08          	mov    0x8(%rbx),%rdx
  401e09:	0f b6 0a             	movzbl (%rdx),%ecx
  401e0c:	48 83 c2 01          	add    $0x1,%rdx
  401e10:	48 89 53 08          	mov    %rdx,0x8(%rbx)
  401e14:	83 e8 01             	sub    $0x1,%eax
  401e17:	89 43 04             	mov    %eax,0x4(%rbx)
  401e1a:	48 83 c5 01          	add    $0x1,%rbp
  401e1e:	88 4d ff             	mov    %cl,-0x1(%rbp)
  401e21:	80 f9 0a             	cmp    $0xa,%cl
  401e24:	74 0c                	je     401e32 <rio_readlineb+0xa2>
  401e26:	41 83 c5 01          	add    $0x1,%r13d
  401e2a:	4c 39 f5             	cmp    %r14,%rbp
  401e2d:	75 a1                	jne    401dd0 <rio_readlineb+0x40>
  401e2f:	4c 89 f5             	mov    %r14,%rbp
  401e32:	c6 45 00 00          	movb   $0x0,0x0(%rbp)
  401e36:	49 63 c5             	movslq %r13d,%rax
  401e39:	5b                   	pop    %rbx
  401e3a:	5d                   	pop    %rbp
  401e3b:	41 5c                	pop    %r12
  401e3d:	41 5d                	pop    %r13
  401e3f:	41 5e                	pop    %r14
  401e41:	c3                   	retq   
  401e42:	41 bd 01 00 00 00    	mov    $0x1,%r13d
  401e48:	eb e8                	jmp    401e32 <rio_readlineb+0xa2>
  401e4a:	48 c7 c0 ff ff ff ff 	mov    $0xffffffffffffffff,%rax
  401e51:	eb e6                	jmp    401e39 <rio_readlineb+0xa9>

0000000000401e53 <submitr>:
  401e53:	41 57                	push   %r15
  401e55:	41 56                	push   %r14
  401e57:	41 55                	push   %r13
  401e59:	41 54                	push   %r12
  401e5b:	55                   	push   %rbp
  401e5c:	53                   	push   %rbx
  401e5d:	48 81 ec 68 a0 00 00 	sub    $0xa068,%rsp
  401e64:	48 89 fd             	mov    %rdi,%rbp
  401e67:	41 89 f5             	mov    %esi,%r13d
  401e6a:	48 89 14 24          	mov    %rdx,(%rsp)
  401e6e:	48 89 4c 24 08       	mov    %rcx,0x8(%rsp)
  401e73:	4c 89 44 24 18       	mov    %r8,0x18(%rsp)
  401e78:	4c 89 4c 24 10       	mov    %r9,0x10(%rsp)
  401e7d:	48 8b 9c 24 a0 a0 00 	mov    0xa0a0(%rsp),%rbx
  401e84:	00 
  401e85:	4c 8b bc 24 a8 a0 00 	mov    0xa0a8(%rsp),%r15
  401e8c:	00 
  401e8d:	c7 84 24 3c 20 00 00 	movl   $0x0,0x203c(%rsp)
  401e94:	00 00 00 00 
  401e98:	ba 00 00 00 00       	mov    $0x0,%edx
  401e9d:	be 01 00 00 00       	mov    $0x1,%esi
  401ea2:	bf 02 00 00 00       	mov    $0x2,%edi
  401ea7:	e8 14 ee ff ff       	callq  400cc0 <socket@plt>
  401eac:	85 c0                	test   %eax,%eax
  401eae:	0f 88 2f 01 00 00    	js     401fe3 <submitr+0x190>
  401eb4:	41 89 c4             	mov    %eax,%r12d
  401eb7:	48 89 ef             	mov    %rbp,%rdi
  401eba:	e8 31 ed ff ff       	callq  400bf0 <gethostbyname@plt>
  401ebf:	48 85 c0             	test   %rax,%rax
  401ec2:	0f 84 6b 01 00 00    	je     402033 <submitr+0x1e0>
  401ec8:	48 8d 8c 24 50 a0 00 	lea    0xa050(%rsp),%rcx
  401ecf:	00 
  401ed0:	48 c7 84 24 52 a0 00 	movq   $0x0,0xa052(%rsp)
  401ed7:	00 00 00 00 00 
  401edc:	c7 84 24 5a a0 00 00 	movl   $0x0,0xa05a(%rsp)
  401ee3:	00 00 00 00 
  401ee7:	66 c7 84 24 5e a0 00 	movw   $0x0,0xa05e(%rsp)
  401eee:	00 00 00 
  401ef1:	66 c7 84 24 50 a0 00 	movw   $0x2,0xa050(%rsp)
  401ef8:	00 02 00 
  401efb:	48 63 50 14          	movslq 0x14(%rax),%rdx
  401eff:	48 8b 40 18          	mov    0x18(%rax),%rax
  401f03:	48 8d 79 04          	lea    0x4(%rcx),%rdi
  401f07:	48 8b 30             	mov    (%rax),%rsi
  401f0a:	e8 31 ed ff ff       	callq  400c40 <memmove@plt>
  401f0f:	66 41 c1 cd 08       	ror    $0x8,%r13w
  401f14:	66 44 89 ac 24 52 a0 	mov    %r13w,0xa052(%rsp)
  401f1b:	00 00 
  401f1d:	ba 10 00 00 00       	mov    $0x10,%edx
  401f22:	48 8d b4 24 50 a0 00 	lea    0xa050(%rsp),%rsi
  401f29:	00 
  401f2a:	44 89 e7             	mov    %r12d,%edi
  401f2d:	e8 5e ed ff ff       	callq  400c90 <connect@plt>
  401f32:	85 c0                	test   %eax,%eax
  401f34:	0f 88 64 01 00 00    	js     40209e <submitr+0x24b>
  401f3a:	49 c7 c1 ff ff ff ff 	mov    $0xffffffffffffffff,%r9
  401f41:	b8 00 00 00 00       	mov    $0x0,%eax
  401f46:	4c 89 c9             	mov    %r9,%rcx
  401f49:	48 89 df             	mov    %rbx,%rdi
  401f4c:	f2 ae                	repnz scas %es:(%rdi),%al
  401f4e:	48 f7 d1             	not    %rcx
  401f51:	48 89 ce             	mov    %rcx,%rsi
  401f54:	4c 89 c9             	mov    %r9,%rcx
  401f57:	48 8b 3c 24          	mov    (%rsp),%rdi
  401f5b:	f2 ae                	repnz scas %es:(%rdi),%al
  401f5d:	49 89 c8             	mov    %rcx,%r8
  401f60:	4c 89 c9             	mov    %r9,%rcx
  401f63:	48 8b 7c 24 08       	mov    0x8(%rsp),%rdi
  401f68:	f2 ae                	repnz scas %es:(%rdi),%al
  401f6a:	48 f7 d1             	not    %rcx
  401f6d:	48 89 ca             	mov    %rcx,%rdx
  401f70:	4c 89 c9             	mov    %r9,%rcx
  401f73:	48 8b 7c 24 10       	mov    0x10(%rsp),%rdi
  401f78:	f2 ae                	repnz scas %es:(%rdi),%al
  401f7a:	4c 29 c2             	sub    %r8,%rdx
  401f7d:	48 29 ca             	sub    %rcx,%rdx
  401f80:	48 8d 44 76 fd       	lea    -0x3(%rsi,%rsi,2),%rax
  401f85:	48 8d 44 02 7b       	lea    0x7b(%rdx,%rax,1),%rax
  401f8a:	48 3d 00 20 00 00    	cmp    $0x2000,%rax
  401f90:	0f 87 65 01 00 00    	ja     4020fb <submitr+0x2a8>
  401f96:	48 8d 94 24 40 40 00 	lea    0x4040(%rsp),%rdx
  401f9d:	00 
  401f9e:	b9 00 04 00 00       	mov    $0x400,%ecx
  401fa3:	b8 00 00 00 00       	mov    $0x0,%eax
  401fa8:	48 89 d7             	mov    %rdx,%rdi
  401fab:	f3 48 ab             	rep stos %rax,%es:(%rdi)
  401fae:	48 c7 c1 ff ff ff ff 	mov    $0xffffffffffffffff,%rcx
  401fb5:	48 89 df             	mov    %rbx,%rdi
  401fb8:	f2 ae                	repnz scas %es:(%rdi),%al
  401fba:	48 f7 d1             	not    %rcx
  401fbd:	48 83 e9 01          	sub    $0x1,%rcx
  401fc1:	85 c9                	test   %ecx,%ecx
  401fc3:	0f 84 45 05 00 00    	je     40250e <submitr+0x6bb>
  401fc9:	8d 41 ff             	lea    -0x1(%rcx),%eax
  401fcc:	4c 8d 74 03 01       	lea    0x1(%rbx,%rax,1),%r14
  401fd1:	48 89 d5             	mov    %rdx,%rbp
  401fd4:	49 bd d9 ff 00 00 00 	movabs $0x2000000000ffd9,%r13
  401fdb:	00 20 00 
  401fde:	e9 a5 01 00 00       	jmpq   402188 <submitr+0x335>
  401fe3:	48 b8 45 72 72 6f 72 	movabs $0x43203a726f727245,%rax
  401fea:	3a 20 43 
  401fed:	48 ba 6c 69 65 6e 74 	movabs $0x6e7520746e65696c,%rdx
  401ff4:	20 75 6e 
  401ff7:	49 89 07             	mov    %rax,(%r15)
  401ffa:	49 89 57 08          	mov    %rdx,0x8(%r15)
  401ffe:	48 b8 61 62 6c 65 20 	movabs $0x206f7420656c6261,%rax
  402005:	74 6f 20 
  402008:	48 ba 63 72 65 61 74 	movabs $0x7320657461657263,%rdx
  40200f:	65 20 73 
  402012:	49 89 47 10          	mov    %rax,0x10(%r15)
  402016:	49 89 57 18          	mov    %rdx,0x18(%r15)
  40201a:	41 c7 47 20 6f 63 6b 	movl   $0x656b636f,0x20(%r15)
  402021:	65 
  402022:	66 41 c7 47 24 74 00 	movw   $0x74,0x24(%r15)
  402029:	b8 ff ff ff ff       	mov    $0xffffffff,%eax
  40202e:	e9 03 03 00 00       	jmpq   402336 <submitr+0x4e3>
  402033:	48 b8 45 72 72 6f 72 	movabs $0x44203a726f727245,%rax
  40203a:	3a 20 44 
  40203d:	48 ba 4e 53 20 69 73 	movabs $0x6e7520736920534e,%rdx
  402044:	20 75 6e 
  402047:	49 89 07             	mov    %rax,(%r15)
  40204a:	49 89 57 08          	mov    %rdx,0x8(%r15)
  40204e:	48 b8 61 62 6c 65 20 	movabs $0x206f7420656c6261,%rax
  402055:	74 6f 20 
  402058:	48 ba 72 65 73 6f 6c 	movabs $0x2065766c6f736572,%rdx
  40205f:	76 65 20 
  402062:	49 89 47 10          	mov    %rax,0x10(%r15)
  402066:	49 89 57 18          	mov    %rdx,0x18(%r15)
  40206a:	48 b8 73 65 72 76 65 	movabs $0x6120726576726573,%rax
  402071:	72 20 61 
  402074:	49 89 47 20          	mov    %rax,0x20(%r15)
  402078:	41 c7 47 28 64 64 72 	movl   $0x65726464,0x28(%r15)
  40207f:	65 
  402080:	66 41 c7 47 2c 73 73 	movw   $0x7373,0x2c(%r15)
  402087:	41 c6 47 2e 00       	movb   $0x0,0x2e(%r15)
  40208c:	44 89 e7             	mov    %r12d,%edi
  40208f:	e8 0c eb ff ff       	callq  400ba0 <close@plt>
  402094:	b8 ff ff ff ff       	mov    $0xffffffff,%eax
  402099:	e9 98 02 00 00       	jmpq   402336 <submitr+0x4e3>
  40209e:	48 b8 45 72 72 6f 72 	movabs $0x55203a726f727245,%rax
  4020a5:	3a 20 55 
  4020a8:	48 ba 6e 61 62 6c 65 	movabs $0x6f7420656c62616e,%rdx
  4020af:	20 74 6f 
  4020b2:	49 89 07             	mov    %rax,(%r15)
  4020b5:	49 89 57 08          	mov    %rdx,0x8(%r15)
  4020b9:	48 b8 20 63 6f 6e 6e 	movabs $0x7463656e6e6f6320,%rax
  4020c0:	65 63 74 
  4020c3:	48 ba 20 74 6f 20 74 	movabs $0x20656874206f7420,%rdx
  4020ca:	68 65 20 
  4020cd:	49 89 47 10          	mov    %rax,0x10(%r15)
  4020d1:	49 89 57 18          	mov    %rdx,0x18(%r15)
  4020d5:	41 c7 47 20 73 65 72 	movl   $0x76726573,0x20(%r15)
  4020dc:	76 
  4020dd:	66 41 c7 47 24 65 72 	movw   $0x7265,0x24(%r15)
  4020e4:	41 c6 47 26 00       	movb   $0x0,0x26(%r15)
  4020e9:	44 89 e7             	mov    %r12d,%edi
  4020ec:	e8 af ea ff ff       	callq  400ba0 <close@plt>
  4020f1:	b8 ff ff ff ff       	mov    $0xffffffff,%eax
  4020f6:	e9 3b 02 00 00       	jmpq   402336 <submitr+0x4e3>
  4020fb:	48 b8 45 72 72 6f 72 	movabs $0x52203a726f727245,%rax
  402102:	3a 20 52 
  402105:	48 ba 65 73 75 6c 74 	movabs $0x747320746c757365,%rdx
  40210c:	20 73 74 
  40210f:	49 89 07             	mov    %rax,(%r15)
  402112:	49 89 57 08          	mov    %rdx,0x8(%r15)
  402116:	48 b8 72 69 6e 67 20 	movabs $0x6f6f7420676e6972,%rax
  40211d:	74 6f 6f 
  402120:	48 ba 20 6c 61 72 67 	movabs $0x202e656772616c20,%rdx
  402127:	65 2e 20 
  40212a:	49 89 47 10          	mov    %rax,0x10(%r15)
  40212e:	49 89 57 18          	mov    %rdx,0x18(%r15)
  402132:	48 b8 49 6e 63 72 65 	movabs $0x6573616572636e49,%rax
  402139:	61 73 65 
  40213c:	48 ba 20 53 55 42 4d 	movabs $0x5254494d42555320,%rdx
  402143:	49 54 52 
  402146:	49 89 47 20          	mov    %rax,0x20(%r15)
  40214a:	49 89 57 28          	mov    %rdx,0x28(%r15)
  40214e:	48 b8 5f 4d 41 58 42 	movabs $0x46554258414d5f,%rax
  402155:	55 46 00 
  402158:	49 89 47 30          	mov    %rax,0x30(%r15)
  40215c:	44 89 e7             	mov    %r12d,%edi
  40215f:	e8 3c ea ff ff       	callq  400ba0 <close@plt>
  402164:	b8 ff ff ff ff       	mov    $0xffffffff,%eax
  402169:	e9 c8 01 00 00       	jmpq   402336 <submitr+0x4e3>
  40216e:	49 0f a3 c5          	bt     %rax,%r13
  402172:	73 1e                	jae    402192 <submitr+0x33f>
  402174:	88 55 00             	mov    %dl,0x0(%rbp)
  402177:	48 8d 6d 01          	lea    0x1(%rbp),%rbp
  40217b:	48 83 c3 01          	add    $0x1,%rbx
  40217f:	49 39 de             	cmp    %rbx,%r14
  402182:	0f 84 86 03 00 00    	je     40250e <submitr+0x6bb>
  402188:	0f b6 13             	movzbl (%rbx),%edx
  40218b:	8d 42 d6             	lea    -0x2a(%rdx),%eax
  40218e:	3c 35                	cmp    $0x35,%al
  402190:	76 dc                	jbe    40216e <submitr+0x31b>
  402192:	89 d0                	mov    %edx,%eax
  402194:	83 e0 df             	and    $0xffffffdf,%eax
  402197:	83 e8 41             	sub    $0x41,%eax
  40219a:	3c 19                	cmp    $0x19,%al
  40219c:	76 d6                	jbe    402174 <submitr+0x321>
  40219e:	80 fa 20             	cmp    $0x20,%dl
  4021a1:	74 45                	je     4021e8 <submitr+0x395>
  4021a3:	8d 42 e0             	lea    -0x20(%rdx),%eax
  4021a6:	3c 5f                	cmp    $0x5f,%al
  4021a8:	76 09                	jbe    4021b3 <submitr+0x360>
  4021aa:	80 fa 09             	cmp    $0x9,%dl
  4021ad:	0f 85 ce 02 00 00    	jne    402481 <submitr+0x62e>
  4021b3:	0f b6 d2             	movzbl %dl,%edx
  4021b6:	be d0 33 40 00       	mov    $0x4033d0,%esi
  4021bb:	48 8d 7c 24 28       	lea    0x28(%rsp),%rdi
  4021c0:	b8 00 00 00 00       	mov    $0x0,%eax
  4021c5:	e8 a6 ea ff ff       	callq  400c70 <sprintf@plt>
  4021ca:	0f b6 44 24 28       	movzbl 0x28(%rsp),%eax
  4021cf:	88 45 00             	mov    %al,0x0(%rbp)
  4021d2:	0f b6 44 24 29       	movzbl 0x29(%rsp),%eax
  4021d7:	88 45 01             	mov    %al,0x1(%rbp)
  4021da:	0f b6 44 24 2a       	movzbl 0x2a(%rsp),%eax
  4021df:	88 45 02             	mov    %al,0x2(%rbp)
  4021e2:	48 8d 6d 03          	lea    0x3(%rbp),%rbp
  4021e6:	eb 93                	jmp    40217b <submitr+0x328>
  4021e8:	c6 45 00 2b          	movb   $0x2b,0x0(%rbp)
  4021ec:	48 8d 6d 01          	lea    0x1(%rbp),%rbp
  4021f0:	eb 89                	jmp    40217b <submitr+0x328>
  4021f2:	48 01 c5             	add    %rax,%rbp
  4021f5:	48 29 c3             	sub    %rax,%rbx
  4021f8:	0f 84 84 03 00 00    	je     402582 <submitr+0x72f>
  4021fe:	48 89 da             	mov    %rbx,%rdx
  402201:	48 89 ee             	mov    %rbp,%rsi
  402204:	44 89 e7             	mov    %r12d,%edi
  402207:	e8 64 e9 ff ff       	callq  400b70 <write@plt>
  40220c:	48 85 c0             	test   %rax,%rax
  40220f:	7f e1                	jg     4021f2 <submitr+0x39f>
  402211:	e8 2a e9 ff ff       	callq  400b40 <__errno_location@plt>
  402216:	83 38 04             	cmpl   $0x4,(%rax)
  402219:	0f 85 03 02 00 00    	jne    402422 <submitr+0x5cf>
  40221f:	4c 89 e8             	mov    %r13,%rax
  402222:	eb ce                	jmp    4021f2 <submitr+0x39f>
  402224:	48 b8 45 72 72 6f 72 	movabs $0x43203a726f727245,%rax
  40222b:	3a 20 43 
  40222e:	48 ba 6c 69 65 6e 74 	movabs $0x6e7520746e65696c,%rdx
  402235:	20 75 6e 
  402238:	49 89 07             	mov    %rax,(%r15)
  40223b:	49 89 57 08          	mov    %rdx,0x8(%r15)
  40223f:	48 b8 61 62 6c 65 20 	movabs $0x206f7420656c6261,%rax
  402246:	74 6f 20 
  402249:	48 ba 72 65 61 64 20 	movabs $0x7269662064616572,%rdx
  402250:	66 69 72 
  402253:	49 89 47 10          	mov    %rax,0x10(%r15)
  402257:	49 89 57 18          	mov    %rdx,0x18(%r15)
  40225b:	48 b8 73 74 20 68 65 	movabs $0x6564616568207473,%rax
  402262:	61 64 65 
  402265:	48 ba 72 20 66 72 6f 	movabs $0x73206d6f72662072,%rdx
  40226c:	6d 20 73 
  40226f:	49 89 47 20          	mov    %rax,0x20(%r15)
  402273:	49 89 57 28          	mov    %rdx,0x28(%r15)
  402277:	41 c7 47 30 65 72 76 	movl   $0x65767265,0x30(%r15)
  40227e:	65 
  40227f:	66 41 c7 47 34 72 00 	movw   $0x72,0x34(%r15)
  402286:	44 89 e7             	mov    %r12d,%edi
  402289:	e8 12 e9 ff ff       	callq  400ba0 <close@plt>
  40228e:	b8 ff ff ff ff       	mov    $0xffffffff,%eax
  402293:	e9 9e 00 00 00       	jmpq   402336 <submitr+0x4e3>
  402298:	ba 00 20 00 00       	mov    $0x2000,%edx
  40229d:	48 8d b4 24 40 60 00 	lea    0x6040(%rsp),%rsi
  4022a4:	00 
  4022a5:	48 8d bc 24 40 80 00 	lea    0x8040(%rsp),%rdi
  4022ac:	00 
  4022ad:	e8 de fa ff ff       	callq  401d90 <rio_readlineb>
  4022b2:	48 85 c0             	test   %rax,%rax
  4022b5:	0f 8e 8d 00 00 00    	jle    402348 <submitr+0x4f5>
  4022bb:	80 bc 24 40 60 00 00 	cmpb   $0xd,0x6040(%rsp)
  4022c2:	0d 
  4022c3:	75 d3                	jne    402298 <submitr+0x445>
  4022c5:	80 bc 24 41 60 00 00 	cmpb   $0xa,0x6041(%rsp)
  4022cc:	0a 
  4022cd:	75 c9                	jne    402298 <submitr+0x445>
  4022cf:	80 bc 24 42 60 00 00 	cmpb   $0x0,0x6042(%rsp)
  4022d6:	00 
  4022d7:	75 bf                	jne    402298 <submitr+0x445>
  4022d9:	ba 00 20 00 00       	mov    $0x2000,%edx
  4022de:	48 8d b4 24 40 60 00 	lea    0x6040(%rsp),%rsi
  4022e5:	00 
  4022e6:	48 8d bc 24 40 80 00 	lea    0x8040(%rsp),%rdi
  4022ed:	00 
  4022ee:	e8 9d fa ff ff       	callq  401d90 <rio_readlineb>
  4022f3:	48 85 c0             	test   %rax,%rax
  4022f6:	0f 8e b3 00 00 00    	jle    4023af <submitr+0x55c>
  4022fc:	48 8d b4 24 40 60 00 	lea    0x6040(%rsp),%rsi
  402303:	00 
  402304:	4c 89 ff             	mov    %r15,%rdi
  402307:	e8 44 e8 ff ff       	callq  400b50 <strcpy@plt>
  40230c:	44 89 e7             	mov    %r12d,%edi
  40230f:	e8 8c e8 ff ff       	callq  400ba0 <close@plt>
  402314:	41 0f b6 07          	movzbl (%r15),%eax
  402318:	83 e8 4f             	sub    $0x4f,%eax
  40231b:	75 0f                	jne    40232c <submitr+0x4d9>
  40231d:	41 0f b6 47 01       	movzbl 0x1(%r15),%eax
  402322:	83 e8 4b             	sub    $0x4b,%eax
  402325:	75 05                	jne    40232c <submitr+0x4d9>
  402327:	41 0f b6 47 02       	movzbl 0x2(%r15),%eax
  40232c:	85 c0                	test   %eax,%eax
  40232e:	0f 95 c0             	setne  %al
  402331:	0f b6 c0             	movzbl %al,%eax
  402334:	f7 d8                	neg    %eax
  402336:	48 81 c4 68 a0 00 00 	add    $0xa068,%rsp
  40233d:	5b                   	pop    %rbx
  40233e:	5d                   	pop    %rbp
  40233f:	41 5c                	pop    %r12
  402341:	41 5d                	pop    %r13
  402343:	41 5e                	pop    %r14
  402345:	41 5f                	pop    %r15
  402347:	c3                   	retq   
  402348:	48 b8 45 72 72 6f 72 	movabs $0x43203a726f727245,%rax
  40234f:	3a 20 43 
  402352:	48 ba 6c 69 65 6e 74 	movabs $0x6e7520746e65696c,%rdx
  402359:	20 75 6e 
  40235c:	49 89 07             	mov    %rax,(%r15)
  40235f:	49 89 57 08          	mov    %rdx,0x8(%r15)
  402363:	48 b8 61 62 6c 65 20 	movabs $0x206f7420656c6261,%rax
  40236a:	74 6f 20 
  40236d:	48 ba 72 65 61 64 20 	movabs $0x6165682064616572,%rdx
  402374:	68 65 61 
  402377:	49 89 47 10          	mov    %rax,0x10(%r15)
  40237b:	49 89 57 18          	mov    %rdx,0x18(%r15)
  40237f:	48 b8 64 65 72 73 20 	movabs $0x6f72662073726564,%rax
  402386:	66 72 6f 
  402389:	48 ba 6d 20 73 65 72 	movabs $0x726576726573206d,%rdx
  402390:	76 65 72 
  402393:	49 89 47 20          	mov    %rax,0x20(%r15)
  402397:	49 89 57 28          	mov    %rdx,0x28(%r15)
  40239b:	41 c6 47 30 00       	movb   $0x0,0x30(%r15)
  4023a0:	44 89 e7             	mov    %r12d,%edi
  4023a3:	e8 f8 e7 ff ff       	callq  400ba0 <close@plt>
  4023a8:	b8 ff ff ff ff       	mov    $0xffffffff,%eax
  4023ad:	eb 87                	jmp    402336 <submitr+0x4e3>
  4023af:	48 b8 45 72 72 6f 72 	movabs $0x43203a726f727245,%rax
  4023b6:	3a 20 43 
  4023b9:	48 ba 6c 69 65 6e 74 	movabs $0x6e7520746e65696c,%rdx
  4023c0:	20 75 6e 
  4023c3:	49 89 07             	mov    %rax,(%r15)
  4023c6:	49 89 57 08          	mov    %rdx,0x8(%r15)
  4023ca:	48 b8 61 62 6c 65 20 	movabs $0x206f7420656c6261,%rax
  4023d1:	74 6f 20 
  4023d4:	48 ba 72 65 61 64 20 	movabs $0x6174732064616572,%rdx
  4023db:	73 74 61 
  4023de:	49 89 47 10          	mov    %rax,0x10(%r15)
  4023e2:	49 89 57 18          	mov    %rdx,0x18(%r15)
  4023e6:	48 b8 74 75 73 20 6d 	movabs $0x7373656d20737574,%rax
  4023ed:	65 73 73 
  4023f0:	48 ba 61 67 65 20 66 	movabs $0x6d6f726620656761,%rdx
  4023f7:	72 6f 6d 
  4023fa:	49 89 47 20          	mov    %rax,0x20(%r15)
  4023fe:	49 89 57 28          	mov    %rdx,0x28(%r15)
  402402:	48 b8 20 73 65 72 76 	movabs $0x72657672657320,%rax
  402409:	65 72 00 
  40240c:	49 89 47 30          	mov    %rax,0x30(%r15)
  402410:	44 89 e7             	mov    %r12d,%edi
  402413:	e8 88 e7 ff ff       	callq  400ba0 <close@plt>
  402418:	b8 ff ff ff ff       	mov    $0xffffffff,%eax
  40241d:	e9 14 ff ff ff       	jmpq   402336 <submitr+0x4e3>
  402422:	48 b8 45 72 72 6f 72 	movabs $0x43203a726f727245,%rax
  402429:	3a 20 43 
  40242c:	48 ba 6c 69 65 6e 74 	movabs $0x6e7520746e65696c,%rdx
  402433:	20 75 6e 
  402436:	49 89 07             	mov    %rax,(%r15)
  402439:	49 89 57 08          	mov    %rdx,0x8(%r15)
  40243d:	48 b8 61 62 6c 65 20 	movabs $0x206f7420656c6261,%rax
  402444:	74 6f 20 
  402447:	48 ba 77 72 69 74 65 	movabs $0x6f74206574697277,%rdx
  40244e:	20 74 6f 
  402451:	49 89 47 10          	mov    %rax,0x10(%r15)
  402455:	49 89 57 18          	mov    %rdx,0x18(%r15)
  402459:	48 b8 20 74 68 65 20 	movabs $0x7265732065687420,%rax
  402460:	73 65 72 
  402463:	49 89 47 20          	mov    %rax,0x20(%r15)
  402467:	41 c7 47 28 76 65 72 	movl   $0x726576,0x28(%r15)
  40246e:	00 
  40246f:	44 89 e7             	mov    %r12d,%edi
  402472:	e8 29 e7 ff ff       	callq  400ba0 <close@plt>
  402477:	b8 ff ff ff ff       	mov    $0xffffffff,%eax
  40247c:	e9 b5 fe ff ff       	jmpq   402336 <submitr+0x4e3>
  402481:	48 b8 45 72 72 6f 72 	movabs $0x52203a726f727245,%rax
  402488:	3a 20 52 
  40248b:	48 ba 65 73 75 6c 74 	movabs $0x747320746c757365,%rdx
  402492:	20 73 74 
  402495:	49 89 07             	mov    %rax,(%r15)
  402498:	49 89 57 08          	mov    %rdx,0x8(%r15)
  40249c:	48 b8 72 69 6e 67 20 	movabs $0x6e6f6320676e6972,%rax
  4024a3:	63 6f 6e 
  4024a6:	48 ba 74 61 69 6e 73 	movabs $0x6e6120736e696174,%rdx
  4024ad:	20 61 6e 
  4024b0:	49 89 47 10          	mov    %rax,0x10(%r15)
  4024b4:	49 89 57 18          	mov    %rdx,0x18(%r15)
  4024b8:	48 b8 20 69 6c 6c 65 	movabs $0x6c6167656c6c6920,%rax
  4024bf:	67 61 6c 
  4024c2:	48 ba 20 6f 72 20 75 	movabs $0x72706e7520726f20,%rdx
  4024c9:	6e 70 72 
  4024cc:	49 89 47 20          	mov    %rax,0x20(%r15)
  4024d0:	49 89 57 28          	mov    %rdx,0x28(%r15)
  4024d4:	48 b8 69 6e 74 61 62 	movabs $0x20656c6261746e69,%rax
  4024db:	6c 65 20 
  4024de:	48 ba 63 68 61 72 61 	movabs $0x6574636172616863,%rdx
  4024e5:	63 74 65 
  4024e8:	49 89 47 30          	mov    %rax,0x30(%r15)
  4024ec:	49 89 57 38          	mov    %rdx,0x38(%r15)
  4024f0:	66 41 c7 47 40 72 2e 	movw   $0x2e72,0x40(%r15)
  4024f7:	41 c6 47 42 00       	movb   $0x0,0x42(%r15)
  4024fc:	44 89 e7             	mov    %r12d,%edi
  4024ff:	e8 9c e6 ff ff       	callq  400ba0 <close@plt>
  402504:	b8 ff ff ff ff       	mov    $0xffffffff,%eax
  402509:	e9 28 fe ff ff       	jmpq   402336 <submitr+0x4e3>
  40250e:	48 8d 9c 24 40 60 00 	lea    0x6040(%rsp),%rbx
  402515:	00 
  402516:	48 83 ec 08          	sub    $0x8,%rsp
  40251a:	48 8d 84 24 48 40 00 	lea    0x4048(%rsp),%rax
  402521:	00 
  402522:	50                   	push   %rax
  402523:	4c 8b 4c 24 20       	mov    0x20(%rsp),%r9
  402528:	4c 8b 44 24 28       	mov    0x28(%rsp),%r8
  40252d:	48 8b 4c 24 18       	mov    0x18(%rsp),%rcx
  402532:	48 8b 54 24 10       	mov    0x10(%rsp),%rdx
  402537:	be 50 33 40 00       	mov    $0x403350,%esi
  40253c:	48 89 df             	mov    %rbx,%rdi
  40253f:	b8 00 00 00 00       	mov    $0x0,%eax
  402544:	e8 27 e7 ff ff       	callq  400c70 <sprintf@plt>
  402549:	48 c7 c1 ff ff ff ff 	mov    $0xffffffffffffffff,%rcx
  402550:	b8 00 00 00 00       	mov    $0x0,%eax
  402555:	48 89 df             	mov    %rbx,%rdi
  402558:	f2 ae                	repnz scas %es:(%rdi),%al
  40255a:	48 89 ce             	mov    %rcx,%rsi
  40255d:	48 f7 d6             	not    %rsi
  402560:	48 89 f1             	mov    %rsi,%rcx
  402563:	48 83 c4 10          	add    $0x10,%rsp
  402567:	48 8d ac 24 40 60 00 	lea    0x6040(%rsp),%rbp
  40256e:	00 
  40256f:	41 bd 00 00 00 00    	mov    $0x0,%r13d
  402575:	48 83 e9 01          	sub    $0x1,%rcx
  402579:	48 89 cb             	mov    %rcx,%rbx
  40257c:	0f 85 7c fc ff ff    	jne    4021fe <submitr+0x3ab>
  402582:	44 89 a4 24 40 80 00 	mov    %r12d,0x8040(%rsp)
  402589:	00 
  40258a:	c7 84 24 44 80 00 00 	movl   $0x0,0x8044(%rsp)
  402591:	00 00 00 00 
  402595:	48 8d 84 24 50 80 00 	lea    0x8050(%rsp),%rax
  40259c:	00 
  40259d:	48 89 84 24 48 80 00 	mov    %rax,0x8048(%rsp)
  4025a4:	00 
  4025a5:	ba 00 20 00 00       	mov    $0x2000,%edx
  4025aa:	48 8d b4 24 40 60 00 	lea    0x6040(%rsp),%rsi
  4025b1:	00 
  4025b2:	48 8d bc 24 40 80 00 	lea    0x8040(%rsp),%rdi
  4025b9:	00 
  4025ba:	e8 d1 f7 ff ff       	callq  401d90 <rio_readlineb>
  4025bf:	48 85 c0             	test   %rax,%rax
  4025c2:	0f 8e 5c fc ff ff    	jle    402224 <submitr+0x3d1>
  4025c8:	4c 8d 44 24 30       	lea    0x30(%rsp),%r8
  4025cd:	48 8d 8c 24 3c 20 00 	lea    0x203c(%rsp),%rcx
  4025d4:	00 
  4025d5:	48 8d 94 24 40 20 00 	lea    0x2040(%rsp),%rdx
  4025dc:	00 
  4025dd:	be d7 33 40 00       	mov    $0x4033d7,%esi
  4025e2:	48 8d bc 24 40 60 00 	lea    0x6040(%rsp),%rdi
  4025e9:	00 
  4025ea:	b8 00 00 00 00       	mov    $0x0,%eax
  4025ef:	e8 3c e6 ff ff       	callq  400c30 <__isoc99_sscanf@plt>
  4025f4:	8b 94 24 3c 20 00 00 	mov    0x203c(%rsp),%edx
  4025fb:	81 fa c8 00 00 00    	cmp    $0xc8,%edx
  402601:	0f 84 b4 fc ff ff    	je     4022bb <submitr+0x468>
  402607:	48 8d 4c 24 30       	lea    0x30(%rsp),%rcx
  40260c:	be 20 33 40 00       	mov    $0x403320,%esi
  402611:	4c 89 ff             	mov    %r15,%rdi
  402614:	b8 00 00 00 00       	mov    $0x0,%eax
  402619:	e8 52 e6 ff ff       	callq  400c70 <sprintf@plt>
  40261e:	44 89 e7             	mov    %r12d,%edi
  402621:	e8 7a e5 ff ff       	callq  400ba0 <close@plt>
  402626:	b8 ff ff ff ff       	mov    $0xffffffff,%eax
  40262b:	e9 06 fd ff ff       	jmpq   402336 <submitr+0x4e3>

0000000000402630 <init_timeout>:
  402630:	85 ff                	test   %edi,%edi
  402632:	74 23                	je     402657 <init_timeout+0x27>
  402634:	53                   	push   %rbx
  402635:	89 fb                	mov    %edi,%ebx
  402637:	be 67 1d 40 00       	mov    $0x401d67,%esi
  40263c:	bf 0e 00 00 00       	mov    $0xe,%edi
  402641:	e8 9a e5 ff ff       	callq  400be0 <signal@plt>
  402646:	85 db                	test   %ebx,%ebx
  402648:	bf 00 00 00 00       	mov    $0x0,%edi
  40264d:	0f 49 fb             	cmovns %ebx,%edi
  402650:	e8 3b e5 ff ff       	callq  400b90 <alarm@plt>
  402655:	5b                   	pop    %rbx
  402656:	c3                   	retq   
  402657:	c3                   	retq   

0000000000402658 <init_driver>:
  402658:	55                   	push   %rbp
  402659:	53                   	push   %rbx
  40265a:	48 83 ec 18          	sub    $0x18,%rsp
  40265e:	48 89 fd             	mov    %rdi,%rbp
  402661:	be 01 00 00 00       	mov    $0x1,%esi
  402666:	bf 0d 00 00 00       	mov    $0xd,%edi
  40266b:	e8 70 e5 ff ff       	callq  400be0 <signal@plt>
  402670:	be 01 00 00 00       	mov    $0x1,%esi
  402675:	bf 1d 00 00 00       	mov    $0x1d,%edi
  40267a:	e8 61 e5 ff ff       	callq  400be0 <signal@plt>
  40267f:	be 01 00 00 00       	mov    $0x1,%esi
  402684:	bf 1d 00 00 00       	mov    $0x1d,%edi
  402689:	e8 52 e5 ff ff       	callq  400be0 <signal@plt>
  40268e:	ba 00 00 00 00       	mov    $0x0,%edx
  402693:	be 01 00 00 00       	mov    $0x1,%esi
  402698:	bf 02 00 00 00       	mov    $0x2,%edi
  40269d:	e8 1e e6 ff ff       	callq  400cc0 <socket@plt>
  4026a2:	85 c0                	test   %eax,%eax
  4026a4:	0f 88 83 00 00 00    	js     40272d <init_driver+0xd5>
  4026aa:	89 c3                	mov    %eax,%ebx
  4026ac:	bf 46 32 40 00       	mov    $0x403246,%edi
  4026b1:	e8 3a e5 ff ff       	callq  400bf0 <gethostbyname@plt>
  4026b6:	48 85 c0             	test   %rax,%rax
  4026b9:	0f 84 ba 00 00 00    	je     402779 <init_driver+0x121>
  4026bf:	48 c7 44 24 02 00 00 	movq   $0x0,0x2(%rsp)
  4026c6:	00 00 
  4026c8:	c7 44 24 0a 00 00 00 	movl   $0x0,0xa(%rsp)
  4026cf:	00 
  4026d0:	66 c7 44 24 0e 00 00 	movw   $0x0,0xe(%rsp)
  4026d7:	66 c7 04 24 02 00    	movw   $0x2,(%rsp)
  4026dd:	48 63 50 14          	movslq 0x14(%rax),%rdx
  4026e1:	48 8b 40 18          	mov    0x18(%rax),%rax
  4026e5:	48 8d 7c 24 04       	lea    0x4(%rsp),%rdi
  4026ea:	48 8b 30             	mov    (%rax),%rsi
  4026ed:	e8 4e e5 ff ff       	callq  400c40 <memmove@plt>
  4026f2:	66 c7 44 24 02 3b 6e 	movw   $0x6e3b,0x2(%rsp)
  4026f9:	ba 10 00 00 00       	mov    $0x10,%edx
  4026fe:	48 89 e6             	mov    %rsp,%rsi
  402701:	89 df                	mov    %ebx,%edi
  402703:	e8 88 e5 ff ff       	callq  400c90 <connect@plt>
  402708:	85 c0                	test   %eax,%eax
  40270a:	0f 88 d1 00 00 00    	js     4027e1 <init_driver+0x189>
  402710:	89 df                	mov    %ebx,%edi
  402712:	e8 89 e4 ff ff       	callq  400ba0 <close@plt>
  402717:	66 c7 45 00 4f 4b    	movw   $0x4b4f,0x0(%rbp)
  40271d:	c6 45 02 00          	movb   $0x0,0x2(%rbp)
  402721:	b8 00 00 00 00       	mov    $0x0,%eax
  402726:	48 83 c4 18          	add    $0x18,%rsp
  40272a:	5b                   	pop    %rbx
  40272b:	5d                   	pop    %rbp
  40272c:	c3                   	retq   
  40272d:	48 b8 45 72 72 6f 72 	movabs $0x43203a726f727245,%rax
  402734:	3a 20 43 
  402737:	48 ba 6c 69 65 6e 74 	movabs $0x6e7520746e65696c,%rdx
  40273e:	20 75 6e 
  402741:	48 89 45 00          	mov    %rax,0x0(%rbp)
  402745:	48 89 55 08          	mov    %rdx,0x8(%rbp)
  402749:	48 b8 61 62 6c 65 20 	movabs $0x206f7420656c6261,%rax
  402750:	74 6f 20 
  402753:	48 ba 63 72 65 61 74 	movabs $0x7320657461657263,%rdx
  40275a:	65 20 73 
  40275d:	48 89 45 10          	mov    %rax,0x10(%rbp)
  402761:	48 89 55 18          	mov    %rdx,0x18(%rbp)
  402765:	c7 45 20 6f 63 6b 65 	movl   $0x656b636f,0x20(%rbp)
  40276c:	66 c7 45 24 74 00    	movw   $0x74,0x24(%rbp)
  402772:	b8 ff ff ff ff       	mov    $0xffffffff,%eax
  402777:	eb ad                	jmp    402726 <init_driver+0xce>
  402779:	48 b8 45 72 72 6f 72 	movabs $0x44203a726f727245,%rax
  402780:	3a 20 44 
  402783:	48 ba 4e 53 20 69 73 	movabs $0x6e7520736920534e,%rdx
  40278a:	20 75 6e 
  40278d:	48 89 45 00          	mov    %rax,0x0(%rbp)
  402791:	48 89 55 08          	mov    %rdx,0x8(%rbp)
  402795:	48 b8 61 62 6c 65 20 	movabs $0x206f7420656c6261,%rax
  40279c:	74 6f 20 
  40279f:	48 ba 72 65 73 6f 6c 	movabs $0x2065766c6f736572,%rdx
  4027a6:	76 65 20 
  4027a9:	48 89 45 10          	mov    %rax,0x10(%rbp)
  4027ad:	48 89 55 18          	mov    %rdx,0x18(%rbp)
  4027b1:	48 b8 73 65 72 76 65 	movabs $0x6120726576726573,%rax
  4027b8:	72 20 61 
  4027bb:	48 89 45 20          	mov    %rax,0x20(%rbp)
  4027bf:	c7 45 28 64 64 72 65 	movl   $0x65726464,0x28(%rbp)
  4027c6:	66 c7 45 2c 73 73    	movw   $0x7373,0x2c(%rbp)
  4027cc:	c6 45 2e 00          	movb   $0x0,0x2e(%rbp)
  4027d0:	89 df                	mov    %ebx,%edi
  4027d2:	e8 c9 e3 ff ff       	callq  400ba0 <close@plt>
  4027d7:	b8 ff ff ff ff       	mov    $0xffffffff,%eax
  4027dc:	e9 45 ff ff ff       	jmpq   402726 <init_driver+0xce>
  4027e1:	ba 46 32 40 00       	mov    $0x403246,%edx
  4027e6:	be a8 33 40 00       	mov    $0x4033a8,%esi
  4027eb:	48 89 ef             	mov    %rbp,%rdi
  4027ee:	b8 00 00 00 00       	mov    $0x0,%eax
  4027f3:	e8 78 e4 ff ff       	callq  400c70 <sprintf@plt>
  4027f8:	89 df                	mov    %ebx,%edi
  4027fa:	e8 a1 e3 ff ff       	callq  400ba0 <close@plt>
  4027ff:	b8 ff ff ff ff       	mov    $0xffffffff,%eax
  402804:	e9 1d ff ff ff       	jmpq   402726 <init_driver+0xce>

0000000000402809 <driver_post>:
  402809:	53                   	push   %rbx
  40280a:	4c 89 c3             	mov    %r8,%rbx
  40280d:	85 c9                	test   %ecx,%ecx
  40280f:	75 17                	jne    402828 <driver_post+0x1f>
  402811:	48 85 ff             	test   %rdi,%rdi
  402814:	74 05                	je     40281b <driver_post+0x12>
  402816:	80 3f 00             	cmpb   $0x0,(%rdi)
  402819:	75 2f                	jne    40284a <driver_post+0x41>
  40281b:	66 c7 03 4f 4b       	movw   $0x4b4f,(%rbx)
  402820:	c6 43 02 00          	movb   $0x0,0x2(%rbx)
  402824:	89 c8                	mov    %ecx,%eax
  402826:	5b                   	pop    %rbx
  402827:	c3                   	retq   
  402828:	48 89 d6             	mov    %rdx,%rsi
  40282b:	bf e8 33 40 00       	mov    $0x4033e8,%edi
  402830:	b8 00 00 00 00       	mov    $0x0,%eax
  402835:	e8 46 e3 ff ff       	callq  400b80 <printf@plt>
  40283a:	66 c7 03 4f 4b       	movw   $0x4b4f,(%rbx)
  40283f:	c6 43 02 00          	movb   $0x0,0x2(%rbx)
  402843:	b8 00 00 00 00       	mov    $0x0,%eax
  402848:	eb dc                	jmp    402826 <driver_post+0x1d>
  40284a:	41 50                	push   %r8
  40284c:	52                   	push   %rdx
  40284d:	41 b9 ff 33 40 00    	mov    $0x4033ff,%r9d
  402853:	49 89 f0             	mov    %rsi,%r8
  402856:	48 89 f9             	mov    %rdi,%rcx
  402859:	ba 03 34 40 00       	mov    $0x403403,%edx
  40285e:	be 6e 3b 00 00       	mov    $0x3b6e,%esi
  402863:	bf 46 32 40 00       	mov    $0x403246,%edi
  402868:	e8 e6 f5 ff ff       	callq  401e53 <submitr>
  40286d:	48 83 c4 10          	add    $0x10,%rsp
  402871:	eb b3                	jmp    402826 <driver_post+0x1d>
  402873:	66 2e 0f 1f 84 00 00 	nopw   %cs:0x0(%rax,%rax,1)
  40287a:	00 00 00 
  40287d:	0f 1f 00             	nopl   (%rax)

0000000000402880 <__libc_csu_init>:
  402880:	41 57                	push   %r15
  402882:	41 89 ff             	mov    %edi,%r15d
  402885:	41 56                	push   %r14
  402887:	49 89 f6             	mov    %rsi,%r14
  40288a:	41 55                	push   %r13
  40288c:	49 89 d5             	mov    %rdx,%r13
  40288f:	41 54                	push   %r12
  402891:	4c 8d 25 80 15 20 00 	lea    0x201580(%rip),%r12        # 603e18 <__frame_dummy_init_array_entry>
  402898:	55                   	push   %rbp
  402899:	48 8d 2d 80 15 20 00 	lea    0x201580(%rip),%rbp        # 603e20 <__init_array_end>
  4028a0:	53                   	push   %rbx
  4028a1:	4c 29 e5             	sub    %r12,%rbp
  4028a4:	31 db                	xor    %ebx,%ebx
  4028a6:	48 c1 fd 03          	sar    $0x3,%rbp
  4028aa:	48 83 ec 08          	sub    $0x8,%rsp
  4028ae:	e8 35 e2 ff ff       	callq  400ae8 <_init>
  4028b3:	48 85 ed             	test   %rbp,%rbp
  4028b6:	74 1e                	je     4028d6 <__libc_csu_init+0x56>
  4028b8:	0f 1f 84 00 00 00 00 	nopl   0x0(%rax,%rax,1)
  4028bf:	00 
  4028c0:	4c 89 ea             	mov    %r13,%rdx
  4028c3:	4c 89 f6             	mov    %r14,%rsi
  4028c6:	44 89 ff             	mov    %r15d,%edi
  4028c9:	41 ff 14 dc          	callq  *(%r12,%rbx,8)
  4028cd:	48 83 c3 01          	add    $0x1,%rbx
  4028d1:	48 39 eb             	cmp    %rbp,%rbx
  4028d4:	75 ea                	jne    4028c0 <__libc_csu_init+0x40>
  4028d6:	48 83 c4 08          	add    $0x8,%rsp
  4028da:	5b                   	pop    %rbx
  4028db:	5d                   	pop    %rbp
  4028dc:	41 5c                	pop    %r12
  4028de:	41 5d                	pop    %r13
  4028e0:	41 5e                	pop    %r14
  4028e2:	41 5f                	pop    %r15
  4028e4:	c3                   	retq   
  4028e5:	90                   	nop
  4028e6:	66 2e 0f 1f 84 00 00 	nopw   %cs:0x0(%rax,%rax,1)
  4028ed:	00 00 00 

00000000004028f0 <__libc_csu_fini>:
  4028f0:	f3 c3                	repz retq 

Disassembly of section .fini:

00000000004028f4 <_fini>:
  4028f4:	48 83 ec 08          	sub    $0x8,%rsp
  4028f8:	48 83 c4 08          	add    $0x8,%rsp
  4028fc:	c3                   	retq   
